
kernel/kernel:     file format elf64-littleriscv


Disassembly of section .text:

0000000080000000 <_entry>:
    80000000:	00008117          	auipc	sp,0x8
    80000004:	a5013103          	ld	sp,-1456(sp) # 80007a50 <_GLOBAL_OFFSET_TABLE_+0x8>
    80000008:	6505                	lui	a0,0x1
    8000000a:	f14025f3          	csrr	a1,mhartid
    8000000e:	0585                	addi	a1,a1,1
    80000010:	02b50533          	mul	a0,a0,a1
    80000014:	912a                	add	sp,sp,a0
    80000016:	767040ef          	jal	ra,80004f7c <start>

000000008000001a <spin>:
    8000001a:	a001                	j	8000001a <spin>

000000008000001c <superinit>:
  superinit(); //allocate space for superpages before regular pages
  freerange(end, (void*)PHYSTOP - (uint64)NSUPERPAGES * SUPERPGSIZE); //modification made here to ensure space for 60 superpages
}

void
superinit() {
    8000001c:	1141                	addi	sp,sp,-16
    8000001e:	e406                	sd	ra,8(sp)
    80000020:	e022                	sd	s0,0(sp)
    80000022:	0800                	addi	s0,sp,16
  initlock(&supermem.lock, "supermem");
    80000024:	00007597          	auipc	a1,0x7
    80000028:	fec58593          	addi	a1,a1,-20 # 80007010 <etext+0x10>
    8000002c:	00008517          	auipc	a0,0x8
    80000030:	a7450513          	addi	a0,a0,-1420 # 80007aa0 <supermem>
    80000034:	0cf050ef          	jal	ra,80005902 <initlock>
  supermem.nfree = 0; //reset number of free superpages

  uint64 top = PHYSTOP; //start allocation at top of memory space
  for (int i = 0; i < NSUPERPAGES; i++) { //free up memory for each superpage
    80000038:	00008697          	auipc	a3,0x8
    8000003c:	a8068693          	addi	a3,a3,-1408 # 80007ab8 <supermem+0x18>
  initlock(&supermem.lock, "supermem");
    80000040:	4705                	li	a4,1
  uint64 top = PHYSTOP; //start allocation at top of memory space
    80000042:	47c5                	li	a5,17
    80000044:	07ee                	slli	a5,a5,0x1b
    top -= SUPERPGSIZE;
    80000046:	ffe00537          	lui	a0,0xffe00
  for (int i = 0; i < NSUPERPAGES; i++) { //free up memory for each superpage
    8000004a:	10100613          	li	a2,257
    8000004e:	065e                	slli	a2,a2,0x17
    top -= SUPERPGSIZE;
    80000050:	97aa                	add	a5,a5,a0
    top = top & ~((uint64)SUPERPGSIZE - 1); //superpage boundary alignment
    supermem.superpages[supermem.nfree] = (void*)top; //add superpage address to pool
    80000052:	e29c                	sd	a5,0(a3)
    supermem.nfree++; //increase number of free superpages
    80000054:	0007059b          	sext.w	a1,a4
  for (int i = 0; i < NSUPERPAGES; i++) { //free up memory for each superpage
    80000058:	0705                	addi	a4,a4,1
    8000005a:	06a1                	addi	a3,a3,8
    8000005c:	fec79ae3          	bne	a5,a2,80000050 <superinit+0x34>
    80000060:	00008797          	auipc	a5,0x8
    80000064:	c2b7ac23          	sw	a1,-968(a5) # 80007c98 <supermem+0x1f8>
  }
}
    80000068:	60a2                	ld	ra,8(sp)
    8000006a:	6402                	ld	s0,0(sp)
    8000006c:	0141                	addi	sp,sp,16
    8000006e:	8082                	ret

0000000080000070 <kfree>:
// which normally should have been returned by a
// call to kalloc().  (The exception is when
// initializing the allocator; see kinit above.)
void
kfree(void *pa)
{
    80000070:	7179                	addi	sp,sp,-48
    80000072:	f406                	sd	ra,40(sp)
    80000074:	f022                	sd	s0,32(sp)
    80000076:	ec26                	sd	s1,24(sp)
    80000078:	e84a                	sd	s2,16(sp)
    8000007a:	e44e                	sd	s3,8(sp)
    8000007c:	1800                	addi	s0,sp,48
  struct run *r;

  if(((uint64)pa % PGSIZE) != 0 || (char*)pa < end || (uint64)pa >= PHYSTOP)
    8000007e:	03451793          	slli	a5,a0,0x34
    80000082:	ebb1                	bnez	a5,800000d6 <kfree+0x66>
    80000084:	84aa                	mv	s1,a0
    80000086:	00021797          	auipc	a5,0x21
    8000008a:	f4a78793          	addi	a5,a5,-182 # 80020fd0 <end>
    8000008e:	04f56463          	bltu	a0,a5,800000d6 <kfree+0x66>
    80000092:	47c5                	li	a5,17
    80000094:	07ee                	slli	a5,a5,0x1b
    80000096:	04f57063          	bgeu	a0,a5,800000d6 <kfree+0x66>
    panic("kfree");

  // Fill with junk to catch dangling refs.
  memset(pa, 1, PGSIZE);
    8000009a:	6605                	lui	a2,0x1
    8000009c:	4585                	li	a1,1
    8000009e:	214000ef          	jal	ra,800002b2 <memset>

  r = (struct run*)pa;

  acquire(&kmem.lock);
    800000a2:	00008997          	auipc	s3,0x8
    800000a6:	9fe98993          	addi	s3,s3,-1538 # 80007aa0 <supermem>
    800000aa:	00008917          	auipc	s2,0x8
    800000ae:	bf690913          	addi	s2,s2,-1034 # 80007ca0 <kmem>
    800000b2:	854a                	mv	a0,s2
    800000b4:	0cf050ef          	jal	ra,80005982 <acquire>
  r->next = kmem.freelist;
    800000b8:	2189b783          	ld	a5,536(s3)
    800000bc:	e09c                	sd	a5,0(s1)
  kmem.freelist = r;
    800000be:	2099bc23          	sd	s1,536(s3)
  release(&kmem.lock);
    800000c2:	854a                	mv	a0,s2
    800000c4:	157050ef          	jal	ra,80005a1a <release>
}
    800000c8:	70a2                	ld	ra,40(sp)
    800000ca:	7402                	ld	s0,32(sp)
    800000cc:	64e2                	ld	s1,24(sp)
    800000ce:	6942                	ld	s2,16(sp)
    800000d0:	69a2                	ld	s3,8(sp)
    800000d2:	6145                	addi	sp,sp,48
    800000d4:	8082                	ret
    panic("kfree");
    800000d6:	00007517          	auipc	a0,0x7
    800000da:	f4a50513          	addi	a0,a0,-182 # 80007020 <etext+0x20>
    800000de:	594050ef          	jal	ra,80005672 <panic>

00000000800000e2 <freerange>:
{
    800000e2:	7179                	addi	sp,sp,-48
    800000e4:	f406                	sd	ra,40(sp)
    800000e6:	f022                	sd	s0,32(sp)
    800000e8:	ec26                	sd	s1,24(sp)
    800000ea:	e84a                	sd	s2,16(sp)
    800000ec:	e44e                	sd	s3,8(sp)
    800000ee:	e052                	sd	s4,0(sp)
    800000f0:	1800                	addi	s0,sp,48
  p = (char*)PGROUNDUP((uint64)pa_start);
    800000f2:	6785                	lui	a5,0x1
    800000f4:	fff78713          	addi	a4,a5,-1 # fff <_entry-0x7ffff001>
    800000f8:	00e504b3          	add	s1,a0,a4
    800000fc:	777d                	lui	a4,0xfffff
    800000fe:	8cf9                	and	s1,s1,a4
  for(; p + PGSIZE <= (char*)pa_end; p += PGSIZE) {
    80000100:	94be                	add	s1,s1,a5
    80000102:	0095ec63          	bltu	a1,s1,8000011a <freerange+0x38>
    80000106:	892e                	mv	s2,a1
    kfree(p);
    80000108:	7a7d                	lui	s4,0xfffff
  for(; p + PGSIZE <= (char*)pa_end; p += PGSIZE) {
    8000010a:	6985                	lui	s3,0x1
    kfree(p);
    8000010c:	01448533          	add	a0,s1,s4
    80000110:	f61ff0ef          	jal	ra,80000070 <kfree>
  for(; p + PGSIZE <= (char*)pa_end; p += PGSIZE) {
    80000114:	94ce                	add	s1,s1,s3
    80000116:	fe997be3          	bgeu	s2,s1,8000010c <freerange+0x2a>
}
    8000011a:	70a2                	ld	ra,40(sp)
    8000011c:	7402                	ld	s0,32(sp)
    8000011e:	64e2                	ld	s1,24(sp)
    80000120:	6942                	ld	s2,16(sp)
    80000122:	69a2                	ld	s3,8(sp)
    80000124:	6a02                	ld	s4,0(sp)
    80000126:	6145                	addi	sp,sp,48
    80000128:	8082                	ret

000000008000012a <kinit>:
{
    8000012a:	1141                	addi	sp,sp,-16
    8000012c:	e406                	sd	ra,8(sp)
    8000012e:	e022                	sd	s0,0(sp)
    80000130:	0800                	addi	s0,sp,16
  initlock(&kmem.lock, "kmem");
    80000132:	00007597          	auipc	a1,0x7
    80000136:	ef658593          	addi	a1,a1,-266 # 80007028 <etext+0x28>
    8000013a:	00008517          	auipc	a0,0x8
    8000013e:	b6650513          	addi	a0,a0,-1178 # 80007ca0 <kmem>
    80000142:	7c0050ef          	jal	ra,80005902 <initlock>
  superinit(); //allocate space for superpages before regular pages
    80000146:	ed7ff0ef          	jal	ra,8000001c <superinit>
  freerange(end, (void*)PHYSTOP - (uint64)NSUPERPAGES * SUPERPGSIZE); //modification made here to ensure space for 60 superpages
    8000014a:	10100593          	li	a1,257
    8000014e:	05de                	slli	a1,a1,0x17
    80000150:	00021517          	auipc	a0,0x21
    80000154:	e8050513          	addi	a0,a0,-384 # 80020fd0 <end>
    80000158:	f8bff0ef          	jal	ra,800000e2 <freerange>
}
    8000015c:	60a2                	ld	ra,8(sp)
    8000015e:	6402                	ld	s0,0(sp)
    80000160:	0141                	addi	sp,sp,16
    80000162:	8082                	ret

0000000080000164 <kalloc>:
// Allocate one 4096-byte page of physical memory.
// Returns a pointer that the kernel can use.
// Returns 0 if the memory cannot be allocated.
void *
kalloc(void)
{
    80000164:	1101                	addi	sp,sp,-32
    80000166:	ec06                	sd	ra,24(sp)
    80000168:	e822                	sd	s0,16(sp)
    8000016a:	e426                	sd	s1,8(sp)
    8000016c:	1000                	addi	s0,sp,32
  struct run *r;

  acquire(&kmem.lock);
    8000016e:	00008517          	auipc	a0,0x8
    80000172:	b3250513          	addi	a0,a0,-1230 # 80007ca0 <kmem>
    80000176:	00d050ef          	jal	ra,80005982 <acquire>
  r = kmem.freelist;
    8000017a:	00008497          	auipc	s1,0x8
    8000017e:	b3e4b483          	ld	s1,-1218(s1) # 80007cb8 <kmem+0x18>
  if (r) {
    80000182:	c49d                	beqz	s1,800001b0 <kalloc+0x4c>
    kmem.freelist = r->next;
    80000184:	609c                	ld	a5,0(s1)
    80000186:	00008717          	auipc	a4,0x8
    8000018a:	b2f73923          	sd	a5,-1230(a4) # 80007cb8 <kmem+0x18>
  }
  release(&kmem.lock);
    8000018e:	00008517          	auipc	a0,0x8
    80000192:	b1250513          	addi	a0,a0,-1262 # 80007ca0 <kmem>
    80000196:	085050ef          	jal	ra,80005a1a <release>

  if (r) {
    memset((char*)r, 5, PGSIZE); // fill with junk
    8000019a:	6605                	lui	a2,0x1
    8000019c:	4595                	li	a1,5
    8000019e:	8526                	mv	a0,s1
    800001a0:	112000ef          	jal	ra,800002b2 <memset>
  }
  return (void*)r;
}
    800001a4:	8526                	mv	a0,s1
    800001a6:	60e2                	ld	ra,24(sp)
    800001a8:	6442                	ld	s0,16(sp)
    800001aa:	64a2                	ld	s1,8(sp)
    800001ac:	6105                	addi	sp,sp,32
    800001ae:	8082                	ret
  release(&kmem.lock);
    800001b0:	00008517          	auipc	a0,0x8
    800001b4:	af050513          	addi	a0,a0,-1296 # 80007ca0 <kmem>
    800001b8:	063050ef          	jal	ra,80005a1a <release>
  if (r) {
    800001bc:	b7e5                	j	800001a4 <kalloc+0x40>

00000000800001be <superalloc>:

void *
superalloc(void) {
    800001be:	1101                	addi	sp,sp,-32
    800001c0:	ec06                	sd	ra,24(sp)
    800001c2:	e822                	sd	s0,16(sp)
    800001c4:	e426                	sd	s1,8(sp)
    800001c6:	1000                	addi	s0,sp,32
  acquire(&supermem.lock);
    800001c8:	00008497          	auipc	s1,0x8
    800001cc:	8d848493          	addi	s1,s1,-1832 # 80007aa0 <supermem>
    800001d0:	8526                	mv	a0,s1
    800001d2:	7b0050ef          	jal	ra,80005982 <acquire>
  if (supermem.nfree == 0) { //no free superpages
    800001d6:	1f84a783          	lw	a5,504(s1)
    800001da:	cf8d                	beqz	a5,80000214 <superalloc+0x56>
    release(&supermem.lock);
    return 0;
  }
  supermem.nfree--;
    800001dc:	fff7871b          	addiw	a4,a5,-1
    800001e0:	0007079b          	sext.w	a5,a4
    800001e4:	00008517          	auipc	a0,0x8
    800001e8:	8bc50513          	addi	a0,a0,-1860 # 80007aa0 <supermem>
    800001ec:	1ee52c23          	sw	a4,504(a0)
  void *pg = supermem.superpages[supermem.nfree];
    800001f0:	0789                	addi	a5,a5,2
    800001f2:	078e                	slli	a5,a5,0x3
    800001f4:	97aa                	add	a5,a5,a0
    800001f6:	6784                	ld	s1,8(a5)
  release(&supermem.lock);
    800001f8:	023050ef          	jal	ra,80005a1a <release>
  memset(pg, 5, SUPERPGSIZE);
    800001fc:	00200637          	lui	a2,0x200
    80000200:	4595                	li	a1,5
    80000202:	8526                	mv	a0,s1
    80000204:	0ae000ef          	jal	ra,800002b2 <memset>
  return pg;
}
    80000208:	8526                	mv	a0,s1
    8000020a:	60e2                	ld	ra,24(sp)
    8000020c:	6442                	ld	s0,16(sp)
    8000020e:	64a2                	ld	s1,8(sp)
    80000210:	6105                	addi	sp,sp,32
    80000212:	8082                	ret
    release(&supermem.lock);
    80000214:	8526                	mv	a0,s1
    80000216:	005050ef          	jal	ra,80005a1a <release>
    return 0;
    8000021a:	4481                	li	s1,0
    8000021c:	b7f5                	j	80000208 <superalloc+0x4a>

000000008000021e <superfree>:

void
superfree(void *pa) {
    8000021e:	1101                	addi	sp,sp,-32
    80000220:	ec06                	sd	ra,24(sp)
    80000222:	e822                	sd	s0,16(sp)
    80000224:	e426                	sd	s1,8(sp)
    80000226:	e04a                	sd	s2,0(sp)
    80000228:	1000                	addi	s0,sp,32
  if ((uint64)pa % SUPERPGSIZE != 0) { //check if pa belongs to our address pool (address alignment)
    8000022a:	02b51793          	slli	a5,a0,0x2b
    8000022e:	e3a5                	bnez	a5,8000028e <superfree+0x70>
    80000230:	84aa                	mv	s1,a0
    panic("superfree: pa not 2MiB aligned");
  }
  if ((uint64)pa < PHYSTOP - (uint64)NSUPERPAGES * SUPERPGSIZE || (uint64)pa >= PHYSTOP) {
    80000232:	eff00793          	li	a5,-257
    80000236:	07de                	slli	a5,a5,0x17
    80000238:	97aa                	add	a5,a5,a0
    8000023a:	07800737          	lui	a4,0x7800
    8000023e:	04e7fe63          	bgeu	a5,a4,8000029a <superfree+0x7c>
    panic("superfree: pa outside of superpage pool range");
  }
  memset(pa, 1, SUPERPGSIZE); //set page to junk just like kfree
    80000242:	00200637          	lui	a2,0x200
    80000246:	4585                	li	a1,1
    80000248:	06a000ef          	jal	ra,800002b2 <memset>
  acquire(&supermem.lock);
    8000024c:	00008917          	auipc	s2,0x8
    80000250:	85490913          	addi	s2,s2,-1964 # 80007aa0 <supermem>
    80000254:	854a                	mv	a0,s2
    80000256:	72c050ef          	jal	ra,80005982 <acquire>
  if (supermem.nfree >= NSUPERPAGES) {
    8000025a:	1f892783          	lw	a5,504(s2)
    8000025e:	03b00713          	li	a4,59
    80000262:	04f74263          	blt	a4,a5,800002a6 <superfree+0x88>
    panic("superfree: superpage pool overflow");
  }
  supermem.superpages[supermem.nfree] = pa;
    80000266:	00008517          	auipc	a0,0x8
    8000026a:	83a50513          	addi	a0,a0,-1990 # 80007aa0 <supermem>
    8000026e:	00278713          	addi	a4,a5,2
    80000272:	070e                	slli	a4,a4,0x3
    80000274:	972a                	add	a4,a4,a0
    80000276:	e704                	sd	s1,8(a4)
  supermem.nfree++;
    80000278:	2785                	addiw	a5,a5,1
    8000027a:	1ef52c23          	sw	a5,504(a0)
  release(&supermem.lock);
    8000027e:	79c050ef          	jal	ra,80005a1a <release>
}
    80000282:	60e2                	ld	ra,24(sp)
    80000284:	6442                	ld	s0,16(sp)
    80000286:	64a2                	ld	s1,8(sp)
    80000288:	6902                	ld	s2,0(sp)
    8000028a:	6105                	addi	sp,sp,32
    8000028c:	8082                	ret
    panic("superfree: pa not 2MiB aligned");
    8000028e:	00007517          	auipc	a0,0x7
    80000292:	da250513          	addi	a0,a0,-606 # 80007030 <etext+0x30>
    80000296:	3dc050ef          	jal	ra,80005672 <panic>
    panic("superfree: pa outside of superpage pool range");
    8000029a:	00007517          	auipc	a0,0x7
    8000029e:	db650513          	addi	a0,a0,-586 # 80007050 <etext+0x50>
    800002a2:	3d0050ef          	jal	ra,80005672 <panic>
    panic("superfree: superpage pool overflow");
    800002a6:	00007517          	auipc	a0,0x7
    800002aa:	dda50513          	addi	a0,a0,-550 # 80007080 <etext+0x80>
    800002ae:	3c4050ef          	jal	ra,80005672 <panic>

00000000800002b2 <memset>:
#include "types.h"

void*
memset(void *dst, int c, uint n)
{
    800002b2:	1141                	addi	sp,sp,-16
    800002b4:	e422                	sd	s0,8(sp)
    800002b6:	0800                	addi	s0,sp,16
  char *cdst = (char *) dst;
  int i;
  for(i = 0; i < n; i++){
    800002b8:	ca19                	beqz	a2,800002ce <memset+0x1c>
    800002ba:	87aa                	mv	a5,a0
    800002bc:	1602                	slli	a2,a2,0x20
    800002be:	9201                	srli	a2,a2,0x20
    800002c0:	00a60733          	add	a4,a2,a0
    cdst[i] = c;
    800002c4:	00b78023          	sb	a1,0(a5)
  for(i = 0; i < n; i++){
    800002c8:	0785                	addi	a5,a5,1
    800002ca:	fee79de3          	bne	a5,a4,800002c4 <memset+0x12>
  }
  return dst;
}
    800002ce:	6422                	ld	s0,8(sp)
    800002d0:	0141                	addi	sp,sp,16
    800002d2:	8082                	ret

00000000800002d4 <memcmp>:

int
memcmp(const void *v1, const void *v2, uint n)
{
    800002d4:	1141                	addi	sp,sp,-16
    800002d6:	e422                	sd	s0,8(sp)
    800002d8:	0800                	addi	s0,sp,16
  const uchar *s1, *s2;

  s1 = v1;
  s2 = v2;
  while(n-- > 0){
    800002da:	ca05                	beqz	a2,8000030a <memcmp+0x36>
    800002dc:	fff6069b          	addiw	a3,a2,-1 # 1fffff <_entry-0x7fe00001>
    800002e0:	1682                	slli	a3,a3,0x20
    800002e2:	9281                	srli	a3,a3,0x20
    800002e4:	0685                	addi	a3,a3,1
    800002e6:	96aa                	add	a3,a3,a0
    if(*s1 != *s2)
    800002e8:	00054783          	lbu	a5,0(a0)
    800002ec:	0005c703          	lbu	a4,0(a1)
    800002f0:	00e79863          	bne	a5,a4,80000300 <memcmp+0x2c>
      return *s1 - *s2;
    s1++, s2++;
    800002f4:	0505                	addi	a0,a0,1
    800002f6:	0585                	addi	a1,a1,1
  while(n-- > 0){
    800002f8:	fed518e3          	bne	a0,a3,800002e8 <memcmp+0x14>
  }

  return 0;
    800002fc:	4501                	li	a0,0
    800002fe:	a019                	j	80000304 <memcmp+0x30>
      return *s1 - *s2;
    80000300:	40e7853b          	subw	a0,a5,a4
}
    80000304:	6422                	ld	s0,8(sp)
    80000306:	0141                	addi	sp,sp,16
    80000308:	8082                	ret
  return 0;
    8000030a:	4501                	li	a0,0
    8000030c:	bfe5                	j	80000304 <memcmp+0x30>

000000008000030e <memmove>:

void*
memmove(void *dst, const void *src, uint n)
{
    8000030e:	1141                	addi	sp,sp,-16
    80000310:	e422                	sd	s0,8(sp)
    80000312:	0800                	addi	s0,sp,16
  const char *s;
  char *d;

  if(n == 0)
    80000314:	c205                	beqz	a2,80000334 <memmove+0x26>
    return dst;

  s = src;
  d = dst;
  if(s < d && s + n > d){
    80000316:	02a5e263          	bltu	a1,a0,8000033a <memmove+0x2c>
    s += n;
    d += n;
    while(n-- > 0)
      *--d = *--s;
  } else
    while(n-- > 0)
    8000031a:	1602                	slli	a2,a2,0x20
    8000031c:	9201                	srli	a2,a2,0x20
    8000031e:	00c587b3          	add	a5,a1,a2
{
    80000322:	872a                	mv	a4,a0
      *d++ = *s++;
    80000324:	0585                	addi	a1,a1,1
    80000326:	0705                	addi	a4,a4,1 # 7800001 <_entry-0x787fffff>
    80000328:	fff5c683          	lbu	a3,-1(a1)
    8000032c:	fed70fa3          	sb	a3,-1(a4)
    while(n-- > 0)
    80000330:	fef59ae3          	bne	a1,a5,80000324 <memmove+0x16>

  return dst;
}
    80000334:	6422                	ld	s0,8(sp)
    80000336:	0141                	addi	sp,sp,16
    80000338:	8082                	ret
  if(s < d && s + n > d){
    8000033a:	02061693          	slli	a3,a2,0x20
    8000033e:	9281                	srli	a3,a3,0x20
    80000340:	00d58733          	add	a4,a1,a3
    80000344:	fce57be3          	bgeu	a0,a4,8000031a <memmove+0xc>
    d += n;
    80000348:	96aa                	add	a3,a3,a0
    while(n-- > 0)
    8000034a:	fff6079b          	addiw	a5,a2,-1
    8000034e:	1782                	slli	a5,a5,0x20
    80000350:	9381                	srli	a5,a5,0x20
    80000352:	fff7c793          	not	a5,a5
    80000356:	97ba                	add	a5,a5,a4
      *--d = *--s;
    80000358:	177d                	addi	a4,a4,-1
    8000035a:	16fd                	addi	a3,a3,-1
    8000035c:	00074603          	lbu	a2,0(a4)
    80000360:	00c68023          	sb	a2,0(a3)
    while(n-- > 0)
    80000364:	fee79ae3          	bne	a5,a4,80000358 <memmove+0x4a>
    80000368:	b7f1                	j	80000334 <memmove+0x26>

000000008000036a <memcpy>:

// memcpy exists to placate GCC.  Use memmove.
void*
memcpy(void *dst, const void *src, uint n)
{
    8000036a:	1141                	addi	sp,sp,-16
    8000036c:	e406                	sd	ra,8(sp)
    8000036e:	e022                	sd	s0,0(sp)
    80000370:	0800                	addi	s0,sp,16
  return memmove(dst, src, n);
    80000372:	f9dff0ef          	jal	ra,8000030e <memmove>
}
    80000376:	60a2                	ld	ra,8(sp)
    80000378:	6402                	ld	s0,0(sp)
    8000037a:	0141                	addi	sp,sp,16
    8000037c:	8082                	ret

000000008000037e <strncmp>:

int
strncmp(const char *p, const char *q, uint n)
{
    8000037e:	1141                	addi	sp,sp,-16
    80000380:	e422                	sd	s0,8(sp)
    80000382:	0800                	addi	s0,sp,16
  while(n > 0 && *p && *p == *q)
    80000384:	ce11                	beqz	a2,800003a0 <strncmp+0x22>
    80000386:	00054783          	lbu	a5,0(a0)
    8000038a:	cf89                	beqz	a5,800003a4 <strncmp+0x26>
    8000038c:	0005c703          	lbu	a4,0(a1)
    80000390:	00f71a63          	bne	a4,a5,800003a4 <strncmp+0x26>
    n--, p++, q++;
    80000394:	367d                	addiw	a2,a2,-1
    80000396:	0505                	addi	a0,a0,1
    80000398:	0585                	addi	a1,a1,1
  while(n > 0 && *p && *p == *q)
    8000039a:	f675                	bnez	a2,80000386 <strncmp+0x8>
  if(n == 0)
    return 0;
    8000039c:	4501                	li	a0,0
    8000039e:	a809                	j	800003b0 <strncmp+0x32>
    800003a0:	4501                	li	a0,0
    800003a2:	a039                	j	800003b0 <strncmp+0x32>
  if(n == 0)
    800003a4:	ca09                	beqz	a2,800003b6 <strncmp+0x38>
  return (uchar)*p - (uchar)*q;
    800003a6:	00054503          	lbu	a0,0(a0)
    800003aa:	0005c783          	lbu	a5,0(a1)
    800003ae:	9d1d                	subw	a0,a0,a5
}
    800003b0:	6422                	ld	s0,8(sp)
    800003b2:	0141                	addi	sp,sp,16
    800003b4:	8082                	ret
    return 0;
    800003b6:	4501                	li	a0,0
    800003b8:	bfe5                	j	800003b0 <strncmp+0x32>

00000000800003ba <strncpy>:

char*
strncpy(char *s, const char *t, int n)
{
    800003ba:	1141                	addi	sp,sp,-16
    800003bc:	e422                	sd	s0,8(sp)
    800003be:	0800                	addi	s0,sp,16
  char *os;

  os = s;
  while(n-- > 0 && (*s++ = *t++) != 0)
    800003c0:	872a                	mv	a4,a0
    800003c2:	8832                	mv	a6,a2
    800003c4:	367d                	addiw	a2,a2,-1
    800003c6:	01005963          	blez	a6,800003d8 <strncpy+0x1e>
    800003ca:	0705                	addi	a4,a4,1
    800003cc:	0005c783          	lbu	a5,0(a1)
    800003d0:	fef70fa3          	sb	a5,-1(a4)
    800003d4:	0585                	addi	a1,a1,1
    800003d6:	f7f5                	bnez	a5,800003c2 <strncpy+0x8>
    ;
  while(n-- > 0)
    800003d8:	86ba                	mv	a3,a4
    800003da:	00c05c63          	blez	a2,800003f2 <strncpy+0x38>
    *s++ = 0;
    800003de:	0685                	addi	a3,a3,1
    800003e0:	fe068fa3          	sb	zero,-1(a3)
  while(n-- > 0)
    800003e4:	40d707bb          	subw	a5,a4,a3
    800003e8:	37fd                	addiw	a5,a5,-1
    800003ea:	010787bb          	addw	a5,a5,a6
    800003ee:	fef048e3          	bgtz	a5,800003de <strncpy+0x24>
  return os;
}
    800003f2:	6422                	ld	s0,8(sp)
    800003f4:	0141                	addi	sp,sp,16
    800003f6:	8082                	ret

00000000800003f8 <safestrcpy>:

// Like strncpy but guaranteed to NUL-terminate.
char*
safestrcpy(char *s, const char *t, int n)
{
    800003f8:	1141                	addi	sp,sp,-16
    800003fa:	e422                	sd	s0,8(sp)
    800003fc:	0800                	addi	s0,sp,16
  char *os;

  os = s;
  if(n <= 0)
    800003fe:	02c05363          	blez	a2,80000424 <safestrcpy+0x2c>
    80000402:	fff6069b          	addiw	a3,a2,-1
    80000406:	1682                	slli	a3,a3,0x20
    80000408:	9281                	srli	a3,a3,0x20
    8000040a:	96ae                	add	a3,a3,a1
    8000040c:	87aa                	mv	a5,a0
    return os;
  while(--n > 0 && (*s++ = *t++) != 0)
    8000040e:	00d58963          	beq	a1,a3,80000420 <safestrcpy+0x28>
    80000412:	0585                	addi	a1,a1,1
    80000414:	0785                	addi	a5,a5,1
    80000416:	fff5c703          	lbu	a4,-1(a1)
    8000041a:	fee78fa3          	sb	a4,-1(a5)
    8000041e:	fb65                	bnez	a4,8000040e <safestrcpy+0x16>
    ;
  *s = 0;
    80000420:	00078023          	sb	zero,0(a5)
  return os;
}
    80000424:	6422                	ld	s0,8(sp)
    80000426:	0141                	addi	sp,sp,16
    80000428:	8082                	ret

000000008000042a <strlen>:

int
strlen(const char *s)
{
    8000042a:	1141                	addi	sp,sp,-16
    8000042c:	e422                	sd	s0,8(sp)
    8000042e:	0800                	addi	s0,sp,16
  int n;

  for(n = 0; s[n]; n++)
    80000430:	00054783          	lbu	a5,0(a0)
    80000434:	cf91                	beqz	a5,80000450 <strlen+0x26>
    80000436:	0505                	addi	a0,a0,1
    80000438:	87aa                	mv	a5,a0
    8000043a:	4685                	li	a3,1
    8000043c:	9e89                	subw	a3,a3,a0
    8000043e:	00f6853b          	addw	a0,a3,a5
    80000442:	0785                	addi	a5,a5,1
    80000444:	fff7c703          	lbu	a4,-1(a5)
    80000448:	fb7d                	bnez	a4,8000043e <strlen+0x14>
    ;
  return n;
}
    8000044a:	6422                	ld	s0,8(sp)
    8000044c:	0141                	addi	sp,sp,16
    8000044e:	8082                	ret
  for(n = 0; s[n]; n++)
    80000450:	4501                	li	a0,0
    80000452:	bfe5                	j	8000044a <strlen+0x20>

0000000080000454 <main>:
volatile static int started = 0;

// start() jumps here in supervisor mode on all CPUs.
void
main()
{
    80000454:	1141                	addi	sp,sp,-16
    80000456:	e406                	sd	ra,8(sp)
    80000458:	e022                	sd	s0,0(sp)
    8000045a:	0800                	addi	s0,sp,16
  if(cpuid() == 0){
    8000045c:	45d000ef          	jal	ra,800010b8 <cpuid>
    virtio_disk_init(); // emulated hard disk
    userinit();      // first user process
    __sync_synchronize();
    started = 1;
  } else {
    while(started == 0)
    80000460:	00007717          	auipc	a4,0x7
    80000464:	61070713          	addi	a4,a4,1552 # 80007a70 <started>
  if(cpuid() == 0){
    80000468:	c51d                	beqz	a0,80000496 <main+0x42>
    while(started == 0)
    8000046a:	431c                	lw	a5,0(a4)
    8000046c:	2781                	sext.w	a5,a5
    8000046e:	dff5                	beqz	a5,8000046a <main+0x16>
      ;
    __sync_synchronize();
    80000470:	0ff0000f          	fence
    printf("hart %d starting\n", cpuid());
    80000474:	445000ef          	jal	ra,800010b8 <cpuid>
    80000478:	85aa                	mv	a1,a0
    8000047a:	00007517          	auipc	a0,0x7
    8000047e:	c4650513          	addi	a0,a0,-954 # 800070c0 <etext+0xc0>
    80000482:	73d040ef          	jal	ra,800053be <printf>
    kvminithart();    // turn on paging
    80000486:	080000ef          	jal	ra,80000506 <kvminithart>
    trapinithart();   // install kernel trap vector
    8000048a:	748010ef          	jal	ra,80001bd2 <trapinithart>
    plicinithart();   // ask PLIC for device interrupts
    8000048e:	546040ef          	jal	ra,800049d4 <plicinithart>
  }

  scheduler();
    80000492:	084010ef          	jal	ra,80001516 <scheduler>
    consoleinit();
    80000496:	653040ef          	jal	ra,800052e8 <consoleinit>
    printfinit();
    8000049a:	212050ef          	jal	ra,800056ac <printfinit>
    printf("\n");
    8000049e:	00007517          	auipc	a0,0x7
    800004a2:	c3250513          	addi	a0,a0,-974 # 800070d0 <etext+0xd0>
    800004a6:	719040ef          	jal	ra,800053be <printf>
    printf("xv6 kernel is booting\n");
    800004aa:	00007517          	auipc	a0,0x7
    800004ae:	bfe50513          	addi	a0,a0,-1026 # 800070a8 <etext+0xa8>
    800004b2:	70d040ef          	jal	ra,800053be <printf>
    printf("\n");
    800004b6:	00007517          	auipc	a0,0x7
    800004ba:	c1a50513          	addi	a0,a0,-998 # 800070d0 <etext+0xd0>
    800004be:	701040ef          	jal	ra,800053be <printf>
    kinit();         // physical page allocator
    800004c2:	c69ff0ef          	jal	ra,8000012a <kinit>
    kvminit();       // create kernel page table
    800004c6:	350000ef          	jal	ra,80000816 <kvminit>
    kvminithart();   // turn on paging
    800004ca:	03c000ef          	jal	ra,80000506 <kvminithart>
    procinit();      // process table
    800004ce:	343000ef          	jal	ra,80001010 <procinit>
    trapinit();      // trap vectors
    800004d2:	6dc010ef          	jal	ra,80001bae <trapinit>
    trapinithart();  // install kernel trap vector
    800004d6:	6fc010ef          	jal	ra,80001bd2 <trapinithart>
    plicinit();      // set up interrupt controller
    800004da:	4e4040ef          	jal	ra,800049be <plicinit>
    plicinithart();  // ask PLIC for device interrupts
    800004de:	4f6040ef          	jal	ra,800049d4 <plicinithart>
    binit();         // buffer cache
    800004e2:	56f010ef          	jal	ra,80002250 <binit>
    iinit();         // inode table
    800004e6:	34a020ef          	jal	ra,80002830 <iinit>
    fileinit();      // file table
    800004ea:	0ec030ef          	jal	ra,800035d6 <fileinit>
    virtio_disk_init(); // emulated hard disk
    800004ee:	5d6040ef          	jal	ra,80004ac4 <virtio_disk_init>
    userinit();      // first user process
    800004f2:	65b000ef          	jal	ra,8000134c <userinit>
    __sync_synchronize();
    800004f6:	0ff0000f          	fence
    started = 1;
    800004fa:	4785                	li	a5,1
    800004fc:	00007717          	auipc	a4,0x7
    80000500:	56f72a23          	sw	a5,1396(a4) # 80007a70 <started>
    80000504:	b779                	j	80000492 <main+0x3e>

0000000080000506 <kvminithart>:
}

// Switch h/w page table register to the kernel's page table,
// and enable paging.
void kvminithart()
{
    80000506:	1141                	addi	sp,sp,-16
    80000508:	e422                	sd	s0,8(sp)
    8000050a:	0800                	addi	s0,sp,16
// flush the TLB.
static inline void
sfence_vma()
{
  // the zero, zero means flush all TLB entries.
  asm volatile("sfence.vma zero, zero");
    8000050c:	12000073          	sfence.vma
  // wait for any previous writes to the page table memory to finish.
  sfence_vma();

  w_satp(MAKE_SATP(kernel_pagetable));
    80000510:	00007797          	auipc	a5,0x7
    80000514:	5687b783          	ld	a5,1384(a5) # 80007a78 <kernel_pagetable>
    80000518:	83b1                	srli	a5,a5,0xc
    8000051a:	577d                	li	a4,-1
    8000051c:	177e                	slli	a4,a4,0x3f
    8000051e:	8fd9                	or	a5,a5,a4
  asm volatile("csrw satp, %0" : : "r" (x));
    80000520:	18079073          	csrw	satp,a5
  asm volatile("sfence.vma zero, zero");
    80000524:	12000073          	sfence.vma

  // flush stale entries from the TLB.
  sfence_vma();
}
    80000528:	6422                	ld	s0,8(sp)
    8000052a:	0141                	addi	sp,sp,16
    8000052c:	8082                	ret

000000008000052e <walk>:
//   21..29 -- 9 bits of level-1 index.
//   12..20 -- 9 bits of level-0 index.
//    0..11 -- 12 bits of byte offset within the page.
pte_t *
walk(pagetable_t pagetable, uint64 va, int alloc)
{
    8000052e:	7139                	addi	sp,sp,-64
    80000530:	fc06                	sd	ra,56(sp)
    80000532:	f822                	sd	s0,48(sp)
    80000534:	f426                	sd	s1,40(sp)
    80000536:	f04a                	sd	s2,32(sp)
    80000538:	ec4e                	sd	s3,24(sp)
    8000053a:	e852                	sd	s4,16(sp)
    8000053c:	e456                	sd	s5,8(sp)
    8000053e:	e05a                	sd	s6,0(sp)
    80000540:	0080                	addi	s0,sp,64
    80000542:	892a                	mv	s2,a0
    80000544:	89ae                	mv	s3,a1
    80000546:	8ab2                	mv	s5,a2
  if (va >= MAXVA)
    80000548:	57fd                	li	a5,-1
    8000054a:	83e9                	srli	a5,a5,0x1a
    8000054c:	4a79                	li	s4,30
    panic("walk");

  for (int level = 2; level > 0; level--)
    8000054e:	4b31                	li	s6,12
  if (va >= MAXVA)
    80000550:	02b7fb63          	bgeu	a5,a1,80000586 <walk+0x58>
    panic("walk");
    80000554:	00007517          	auipc	a0,0x7
    80000558:	b8450513          	addi	a0,a0,-1148 # 800070d8 <etext+0xd8>
    8000055c:	116050ef          	jal	ra,80005672 <panic>
      }
#endif
    }
    else
    {
      if (!alloc || (pagetable = (pde_t *)kalloc()) == 0)
    80000560:	060a8563          	beqz	s5,800005ca <walk+0x9c>
    80000564:	c01ff0ef          	jal	ra,80000164 <kalloc>
    80000568:	892a                	mv	s2,a0
    8000056a:	c135                	beqz	a0,800005ce <walk+0xa0>
        return 0;
      memset(pagetable, 0, PGSIZE);
    8000056c:	6605                	lui	a2,0x1
    8000056e:	4581                	li	a1,0
    80000570:	d43ff0ef          	jal	ra,800002b2 <memset>
      *pte = PA2PTE(pagetable) | PTE_V;
    80000574:	00c95793          	srli	a5,s2,0xc
    80000578:	07aa                	slli	a5,a5,0xa
    8000057a:	0017e793          	ori	a5,a5,1
    8000057e:	e09c                	sd	a5,0(s1)
  for (int level = 2; level > 0; level--)
    80000580:	3a5d                	addiw	s4,s4,-9 # ffffffffffffeff7 <end+0xffffffff7ffde027>
    80000582:	036a0263          	beq	s4,s6,800005a6 <walk+0x78>
    pte_t *pte = &pagetable[PX(level, va)];
    80000586:	0149d4b3          	srl	s1,s3,s4
    8000058a:	1ff4f493          	andi	s1,s1,511
    8000058e:	048e                	slli	s1,s1,0x3
    80000590:	94ca                	add	s1,s1,s2
    if (*pte & PTE_V)
    80000592:	609c                	ld	a5,0(s1)
    80000594:	0017f713          	andi	a4,a5,1
    80000598:	d761                	beqz	a4,80000560 <walk+0x32>
      pagetable = (pagetable_t)PTE2PA(*pte);
    8000059a:	00a7d913          	srli	s2,a5,0xa
    8000059e:	0932                	slli	s2,s2,0xc
      if (PTE_LEAF(*pte))
    800005a0:	8bb9                	andi	a5,a5,14
    800005a2:	dff9                	beqz	a5,80000580 <walk+0x52>
    800005a4:	a801                	j	800005b4 <walk+0x86>
    }
  }
  return &pagetable[PX(0, va)];
    800005a6:	00c9d993          	srli	s3,s3,0xc
    800005aa:	1ff9f993          	andi	s3,s3,511
    800005ae:	098e                	slli	s3,s3,0x3
    800005b0:	013904b3          	add	s1,s2,s3
}
    800005b4:	8526                	mv	a0,s1
    800005b6:	70e2                	ld	ra,56(sp)
    800005b8:	7442                	ld	s0,48(sp)
    800005ba:	74a2                	ld	s1,40(sp)
    800005bc:	7902                	ld	s2,32(sp)
    800005be:	69e2                	ld	s3,24(sp)
    800005c0:	6a42                	ld	s4,16(sp)
    800005c2:	6aa2                	ld	s5,8(sp)
    800005c4:	6b02                	ld	s6,0(sp)
    800005c6:	6121                	addi	sp,sp,64
    800005c8:	8082                	ret
        return 0;
    800005ca:	4481                	li	s1,0
    800005cc:	b7e5                	j	800005b4 <walk+0x86>
    800005ce:	84aa                	mv	s1,a0
    800005d0:	b7d5                	j	800005b4 <walk+0x86>

00000000800005d2 <superwalk>:

//derivative of walk that only decends one level in the page table
//key spec for superpages
pte_t *
superwalk(pagetable_t pagetable, uint64 va, int alloc)
{
    800005d2:	7179                	addi	sp,sp,-48
    800005d4:	f406                	sd	ra,40(sp)
    800005d6:	f022                	sd	s0,32(sp)
    800005d8:	ec26                	sd	s1,24(sp)
    800005da:	e84a                	sd	s2,16(sp)
    800005dc:	e44e                	sd	s3,8(sp)
    800005de:	1800                	addi	s0,sp,48
  if(va >= MAXVA) {
    800005e0:	57fd                	li	a5,-1
    800005e2:	83e9                	srli	a5,a5,0x1a
    800005e4:	02b7ed63          	bltu	a5,a1,8000061e <superwalk+0x4c>
    800005e8:	84ae                	mv	s1,a1
    panic("superwalk");
  }

  pte_t *pte = &pagetable[PX(2, va)]; //only descend one level
    800005ea:	01e5d793          	srli	a5,a1,0x1e
    800005ee:	078e                	slli	a5,a5,0x3
    800005f0:	00f509b3          	add	s3,a0,a5
  if(*pte & PTE_V) {
    800005f4:	0009b903          	ld	s2,0(s3) # 1000 <_entry-0x7ffff000>
    800005f8:	00197793          	andi	a5,s2,1
    800005fc:	c79d                	beqz	a5,8000062a <superwalk+0x58>
    pagetable = (pagetable_t)PTE2PA(*pte);
    800005fe:	00a95913          	srli	s2,s2,0xa
    80000602:	0932                	slli	s2,s2,0xc
      return 0;
  }
    memset(pagetable, 0, PGSIZE);
    *pte = PA2PTE(pagetable) | PTE_V;
  }
  return &pagetable[PX(1, va)];
    80000604:	80d5                	srli	s1,s1,0x15
    80000606:	1ff4f493          	andi	s1,s1,511
    8000060a:	048e                	slli	s1,s1,0x3
    8000060c:	9926                	add	s2,s2,s1
}
    8000060e:	854a                	mv	a0,s2
    80000610:	70a2                	ld	ra,40(sp)
    80000612:	7402                	ld	s0,32(sp)
    80000614:	64e2                	ld	s1,24(sp)
    80000616:	6942                	ld	s2,16(sp)
    80000618:	69a2                	ld	s3,8(sp)
    8000061a:	6145                	addi	sp,sp,48
    8000061c:	8082                	ret
    panic("superwalk");
    8000061e:	00007517          	auipc	a0,0x7
    80000622:	ac250513          	addi	a0,a0,-1342 # 800070e0 <etext+0xe0>
    80000626:	04c050ef          	jal	ra,80005672 <panic>
      return 0;
    8000062a:	4901                	li	s2,0
    if (!alloc || (pagetable = (pde_t *)kalloc()) == 0) {
    8000062c:	d26d                	beqz	a2,8000060e <superwalk+0x3c>
    8000062e:	b37ff0ef          	jal	ra,80000164 <kalloc>
    80000632:	892a                	mv	s2,a0
    80000634:	dd69                	beqz	a0,8000060e <superwalk+0x3c>
    memset(pagetable, 0, PGSIZE);
    80000636:	6605                	lui	a2,0x1
    80000638:	4581                	li	a1,0
    8000063a:	c79ff0ef          	jal	ra,800002b2 <memset>
    *pte = PA2PTE(pagetable) | PTE_V;
    8000063e:	00c95793          	srli	a5,s2,0xc
    80000642:	07aa                	slli	a5,a5,0xa
    80000644:	0017e793          	ori	a5,a5,1
    80000648:	00f9b023          	sd	a5,0(s3)
    8000064c:	bf65                	j	80000604 <superwalk+0x32>

000000008000064e <walkaddr>:
walkaddr(pagetable_t pagetable, uint64 va)
{
  pte_t *pte;
  uint64 pa;

  if (va >= MAXVA)
    8000064e:	57fd                	li	a5,-1
    80000650:	83e9                	srli	a5,a5,0x1a
    80000652:	00b7f463          	bgeu	a5,a1,8000065a <walkaddr+0xc>
    return 0;
    80000656:	4501                	li	a0,0
    return 0;
  if ((*pte & PTE_U) == 0)
    return 0;
  pa = PTE2PA(*pte);
  return pa;
}
    80000658:	8082                	ret
{
    8000065a:	1141                	addi	sp,sp,-16
    8000065c:	e406                	sd	ra,8(sp)
    8000065e:	e022                	sd	s0,0(sp)
    80000660:	0800                	addi	s0,sp,16
  pte = walk(pagetable, va, 0);
    80000662:	4601                	li	a2,0
    80000664:	ecbff0ef          	jal	ra,8000052e <walk>
  if (pte == 0)
    80000668:	c105                	beqz	a0,80000688 <walkaddr+0x3a>
  if ((*pte & PTE_V) == 0)
    8000066a:	611c                	ld	a5,0(a0)
  if ((*pte & PTE_U) == 0)
    8000066c:	0117f693          	andi	a3,a5,17
    80000670:	4745                	li	a4,17
    return 0;
    80000672:	4501                	li	a0,0
  if ((*pte & PTE_U) == 0)
    80000674:	00e68663          	beq	a3,a4,80000680 <walkaddr+0x32>
}
    80000678:	60a2                	ld	ra,8(sp)
    8000067a:	6402                	ld	s0,0(sp)
    8000067c:	0141                	addi	sp,sp,16
    8000067e:	8082                	ret
  pa = PTE2PA(*pte);
    80000680:	83a9                	srli	a5,a5,0xa
    80000682:	00c79513          	slli	a0,a5,0xc
  return pa;
    80000686:	bfcd                	j	80000678 <walkaddr+0x2a>
    return 0;
    80000688:	4501                	li	a0,0
    8000068a:	b7fd                	j	80000678 <walkaddr+0x2a>

000000008000068c <mappages>:
// physical addresses starting at pa.
// va and size MUST be page-aligned.
// Returns 0 on success, -1 if walk() couldn't
// allocate a needed page-table page.
int mappages(pagetable_t pagetable, uint64 va, uint64 size, uint64 pa, int perm)
{
    8000068c:	715d                	addi	sp,sp,-80
    8000068e:	e486                	sd	ra,72(sp)
    80000690:	e0a2                	sd	s0,64(sp)
    80000692:	fc26                	sd	s1,56(sp)
    80000694:	f84a                	sd	s2,48(sp)
    80000696:	f44e                	sd	s3,40(sp)
    80000698:	f052                	sd	s4,32(sp)
    8000069a:	ec56                	sd	s5,24(sp)
    8000069c:	e85a                	sd	s6,16(sp)
    8000069e:	e45e                	sd	s7,8(sp)
    800006a0:	0880                	addi	s0,sp,80
  uint64 a, last;
  pte_t *pte;

  if ((va % PGSIZE) != 0)
    800006a2:	03459793          	slli	a5,a1,0x34
    800006a6:	e7a9                	bnez	a5,800006f0 <mappages+0x64>
    800006a8:	8aaa                	mv	s5,a0
    800006aa:	8b3a                	mv	s6,a4
    panic("mappages: va not aligned");

  if ((size % PGSIZE) != 0)
    800006ac:	03461793          	slli	a5,a2,0x34
    800006b0:	e7b1                	bnez	a5,800006fc <mappages+0x70>
    panic("mappages: size not aligned");

  if (size == 0)
    800006b2:	ca39                	beqz	a2,80000708 <mappages+0x7c>
    panic("mappages: size");

  a = va;
  last = va + size - PGSIZE;
    800006b4:	77fd                	lui	a5,0xfffff
    800006b6:	963e                	add	a2,a2,a5
    800006b8:	00b609b3          	add	s3,a2,a1
  a = va;
    800006bc:	892e                	mv	s2,a1
    800006be:	40b68a33          	sub	s4,a3,a1
    if (*pte & PTE_V)
      panic("mappages: remap");
    *pte = PA2PTE(pa) | perm | PTE_V;
    if (a == last)
      break;
    a += PGSIZE;
    800006c2:	6b85                	lui	s7,0x1
    800006c4:	012a04b3          	add	s1,s4,s2
    if ((pte = walk(pagetable, a, 1)) == 0)
    800006c8:	4605                	li	a2,1
    800006ca:	85ca                	mv	a1,s2
    800006cc:	8556                	mv	a0,s5
    800006ce:	e61ff0ef          	jal	ra,8000052e <walk>
    800006d2:	c539                	beqz	a0,80000720 <mappages+0x94>
    if (*pte & PTE_V)
    800006d4:	611c                	ld	a5,0(a0)
    800006d6:	8b85                	andi	a5,a5,1
    800006d8:	ef95                	bnez	a5,80000714 <mappages+0x88>
    *pte = PA2PTE(pa) | perm | PTE_V;
    800006da:	80b1                	srli	s1,s1,0xc
    800006dc:	04aa                	slli	s1,s1,0xa
    800006de:	0164e4b3          	or	s1,s1,s6
    800006e2:	0014e493          	ori	s1,s1,1
    800006e6:	e104                	sd	s1,0(a0)
    if (a == last)
    800006e8:	05390863          	beq	s2,s3,80000738 <mappages+0xac>
    a += PGSIZE;
    800006ec:	995e                	add	s2,s2,s7
    if ((pte = walk(pagetable, a, 1)) == 0)
    800006ee:	bfd9                	j	800006c4 <mappages+0x38>
    panic("mappages: va not aligned");
    800006f0:	00007517          	auipc	a0,0x7
    800006f4:	a0050513          	addi	a0,a0,-1536 # 800070f0 <etext+0xf0>
    800006f8:	77b040ef          	jal	ra,80005672 <panic>
    panic("mappages: size not aligned");
    800006fc:	00007517          	auipc	a0,0x7
    80000700:	a1450513          	addi	a0,a0,-1516 # 80007110 <etext+0x110>
    80000704:	76f040ef          	jal	ra,80005672 <panic>
    panic("mappages: size");
    80000708:	00007517          	auipc	a0,0x7
    8000070c:	a2850513          	addi	a0,a0,-1496 # 80007130 <etext+0x130>
    80000710:	763040ef          	jal	ra,80005672 <panic>
      panic("mappages: remap");
    80000714:	00007517          	auipc	a0,0x7
    80000718:	a2c50513          	addi	a0,a0,-1492 # 80007140 <etext+0x140>
    8000071c:	757040ef          	jal	ra,80005672 <panic>
      return -1;
    80000720:	557d                	li	a0,-1
    pa += PGSIZE;
  }
  return 0;
}
    80000722:	60a6                	ld	ra,72(sp)
    80000724:	6406                	ld	s0,64(sp)
    80000726:	74e2                	ld	s1,56(sp)
    80000728:	7942                	ld	s2,48(sp)
    8000072a:	79a2                	ld	s3,40(sp)
    8000072c:	7a02                	ld	s4,32(sp)
    8000072e:	6ae2                	ld	s5,24(sp)
    80000730:	6b42                	ld	s6,16(sp)
    80000732:	6ba2                	ld	s7,8(sp)
    80000734:	6161                	addi	sp,sp,80
    80000736:	8082                	ret
  return 0;
    80000738:	4501                	li	a0,0
    8000073a:	b7e5                	j	80000722 <mappages+0x96>

000000008000073c <kvmmap>:
{
    8000073c:	1141                	addi	sp,sp,-16
    8000073e:	e406                	sd	ra,8(sp)
    80000740:	e022                	sd	s0,0(sp)
    80000742:	0800                	addi	s0,sp,16
    80000744:	87b6                	mv	a5,a3
  if (mappages(kpgtbl, va, sz, pa, perm) != 0)
    80000746:	86b2                	mv	a3,a2
    80000748:	863e                	mv	a2,a5
    8000074a:	f43ff0ef          	jal	ra,8000068c <mappages>
    8000074e:	e509                	bnez	a0,80000758 <kvmmap+0x1c>
}
    80000750:	60a2                	ld	ra,8(sp)
    80000752:	6402                	ld	s0,0(sp)
    80000754:	0141                	addi	sp,sp,16
    80000756:	8082                	ret
    panic("kvmmap");
    80000758:	00007517          	auipc	a0,0x7
    8000075c:	9f850513          	addi	a0,a0,-1544 # 80007150 <etext+0x150>
    80000760:	713040ef          	jal	ra,80005672 <panic>

0000000080000764 <kvmmake>:
{
    80000764:	1101                	addi	sp,sp,-32
    80000766:	ec06                	sd	ra,24(sp)
    80000768:	e822                	sd	s0,16(sp)
    8000076a:	e426                	sd	s1,8(sp)
    8000076c:	e04a                	sd	s2,0(sp)
    8000076e:	1000                	addi	s0,sp,32
  kpgtbl = (pagetable_t)kalloc();
    80000770:	9f5ff0ef          	jal	ra,80000164 <kalloc>
    80000774:	84aa                	mv	s1,a0
  memset(kpgtbl, 0, PGSIZE);
    80000776:	6605                	lui	a2,0x1
    80000778:	4581                	li	a1,0
    8000077a:	b39ff0ef          	jal	ra,800002b2 <memset>
  kvmmap(kpgtbl, UART0, UART0, PGSIZE, PTE_R | PTE_W);
    8000077e:	4719                	li	a4,6
    80000780:	6685                	lui	a3,0x1
    80000782:	10000637          	lui	a2,0x10000
    80000786:	100005b7          	lui	a1,0x10000
    8000078a:	8526                	mv	a0,s1
    8000078c:	fb1ff0ef          	jal	ra,8000073c <kvmmap>
  kvmmap(kpgtbl, VIRTIO0, VIRTIO0, PGSIZE, PTE_R | PTE_W);
    80000790:	4719                	li	a4,6
    80000792:	6685                	lui	a3,0x1
    80000794:	10001637          	lui	a2,0x10001
    80000798:	100015b7          	lui	a1,0x10001
    8000079c:	8526                	mv	a0,s1
    8000079e:	f9fff0ef          	jal	ra,8000073c <kvmmap>
  kvmmap(kpgtbl, PLIC, PLIC, 0x4000000, PTE_R | PTE_W);
    800007a2:	4719                	li	a4,6
    800007a4:	040006b7          	lui	a3,0x4000
    800007a8:	0c000637          	lui	a2,0xc000
    800007ac:	0c0005b7          	lui	a1,0xc000
    800007b0:	8526                	mv	a0,s1
    800007b2:	f8bff0ef          	jal	ra,8000073c <kvmmap>
  kvmmap(kpgtbl, KERNBASE, KERNBASE, (uint64)etext - KERNBASE, PTE_R | PTE_X);
    800007b6:	00007917          	auipc	s2,0x7
    800007ba:	84a90913          	addi	s2,s2,-1974 # 80007000 <etext>
    800007be:	4729                	li	a4,10
    800007c0:	80007697          	auipc	a3,0x80007
    800007c4:	84068693          	addi	a3,a3,-1984 # 7000 <_entry-0x7fff9000>
    800007c8:	4605                	li	a2,1
    800007ca:	067e                	slli	a2,a2,0x1f
    800007cc:	85b2                	mv	a1,a2
    800007ce:	8526                	mv	a0,s1
    800007d0:	f6dff0ef          	jal	ra,8000073c <kvmmap>
  kvmmap(kpgtbl, (uint64)etext, (uint64)etext, PHYSTOP - (uint64)etext, PTE_R | PTE_W);
    800007d4:	4719                	li	a4,6
    800007d6:	46c5                	li	a3,17
    800007d8:	06ee                	slli	a3,a3,0x1b
    800007da:	412686b3          	sub	a3,a3,s2
    800007de:	864a                	mv	a2,s2
    800007e0:	85ca                	mv	a1,s2
    800007e2:	8526                	mv	a0,s1
    800007e4:	f59ff0ef          	jal	ra,8000073c <kvmmap>
  kvmmap(kpgtbl, TRAMPOLINE, (uint64)trampoline, PGSIZE, PTE_R | PTE_X);
    800007e8:	4729                	li	a4,10
    800007ea:	6685                	lui	a3,0x1
    800007ec:	00006617          	auipc	a2,0x6
    800007f0:	81460613          	addi	a2,a2,-2028 # 80006000 <_trampoline>
    800007f4:	040005b7          	lui	a1,0x4000
    800007f8:	15fd                	addi	a1,a1,-1 # 3ffffff <_entry-0x7c000001>
    800007fa:	05b2                	slli	a1,a1,0xc
    800007fc:	8526                	mv	a0,s1
    800007fe:	f3fff0ef          	jal	ra,8000073c <kvmmap>
  proc_mapstacks(kpgtbl);
    80000802:	8526                	mv	a0,s1
    80000804:	782000ef          	jal	ra,80000f86 <proc_mapstacks>
}
    80000808:	8526                	mv	a0,s1
    8000080a:	60e2                	ld	ra,24(sp)
    8000080c:	6442                	ld	s0,16(sp)
    8000080e:	64a2                	ld	s1,8(sp)
    80000810:	6902                	ld	s2,0(sp)
    80000812:	6105                	addi	sp,sp,32
    80000814:	8082                	ret

0000000080000816 <kvminit>:
{
    80000816:	1141                	addi	sp,sp,-16
    80000818:	e406                	sd	ra,8(sp)
    8000081a:	e022                	sd	s0,0(sp)
    8000081c:	0800                	addi	s0,sp,16
  kernel_pagetable = kvmmake();
    8000081e:	f47ff0ef          	jal	ra,80000764 <kvmmake>
    80000822:	00007797          	auipc	a5,0x7
    80000826:	24a7bb23          	sd	a0,598(a5) # 80007a78 <kernel_pagetable>
}
    8000082a:	60a2                	ld	ra,8(sp)
    8000082c:	6402                	ld	s0,0(sp)
    8000082e:	0141                	addi	sp,sp,16
    80000830:	8082                	ret

0000000080000832 <supermappages>:

int
supermappages(pagetable_t pagetable, uint64 va, uint64 pa, int perm) {
    80000832:	1101                	addi	sp,sp,-32
    80000834:	ec06                	sd	ra,24(sp)
    80000836:	e822                	sd	s0,16(sp)
    80000838:	e426                	sd	s1,8(sp)
    8000083a:	e04a                	sd	s2,0(sp)
    8000083c:	1000                	addi	s0,sp,32
  pte_t *pte;
  if ((va % SUPERPGSIZE) != 0) {
    8000083e:	02b59793          	slli	a5,a1,0x2b
    80000842:	eb8d                	bnez	a5,80000874 <supermappages+0x42>
    80000844:	84b2                	mv	s1,a2
    80000846:	8936                	mv	s2,a3
    panic("supermappages: va not aligned");
  }
  if ((pte = superwalk(pagetable, va, 1)) == 0) { //superwalk failed
    80000848:	4605                	li	a2,1
    8000084a:	d89ff0ef          	jal	ra,800005d2 <superwalk>
    8000084e:	cd1d                	beqz	a0,8000088c <supermappages+0x5a>
    return -1;
  }
  if (*pte & PTE_V) {
    80000850:	611c                	ld	a5,0(a0)
    80000852:	8b85                	andi	a5,a5,1
    80000854:	e795                	bnez	a5,80000880 <supermappages+0x4e>
    panic("supermappages: remap");
  }
  *pte = PA2PTE(pa) | perm | PTE_V;
    80000856:	00c4d613          	srli	a2,s1,0xc
    8000085a:	062a                	slli	a2,a2,0xa
    8000085c:	01266633          	or	a2,a2,s2
    80000860:	00166613          	ori	a2,a2,1
    80000864:	e110                	sd	a2,0(a0)
  return 0;
    80000866:	4501                	li	a0,0
}
    80000868:	60e2                	ld	ra,24(sp)
    8000086a:	6442                	ld	s0,16(sp)
    8000086c:	64a2                	ld	s1,8(sp)
    8000086e:	6902                	ld	s2,0(sp)
    80000870:	6105                	addi	sp,sp,32
    80000872:	8082                	ret
    panic("supermappages: va not aligned");
    80000874:	00007517          	auipc	a0,0x7
    80000878:	8e450513          	addi	a0,a0,-1820 # 80007158 <etext+0x158>
    8000087c:	5f7040ef          	jal	ra,80005672 <panic>
    panic("supermappages: remap");
    80000880:	00007517          	auipc	a0,0x7
    80000884:	8f850513          	addi	a0,a0,-1800 # 80007178 <etext+0x178>
    80000888:	5eb040ef          	jal	ra,80005672 <panic>
    return -1;
    8000088c:	557d                	li	a0,-1
    8000088e:	bfe9                	j	80000868 <supermappages+0x36>

0000000080000890 <uvmunmap>:

// Remove npages of mappings starting from va. va must be
// page-aligned. The mappings must exist.
// Optionally free the physical memory.
void uvmunmap(pagetable_t pagetable, uint64 va, uint64 npages, int do_free)
{
    80000890:	715d                	addi	sp,sp,-80
    80000892:	e486                	sd	ra,72(sp)
    80000894:	e0a2                	sd	s0,64(sp)
    80000896:	fc26                	sd	s1,56(sp)
    80000898:	f84a                	sd	s2,48(sp)
    8000089a:	f44e                	sd	s3,40(sp)
    8000089c:	f052                	sd	s4,32(sp)
    8000089e:	ec56                	sd	s5,24(sp)
    800008a0:	e85a                	sd	s6,16(sp)
    800008a2:	e45e                	sd	s7,8(sp)
    800008a4:	0880                	addi	s0,sp,80
  uint64 a;
  pte_t *pte;
  int sz;

  if ((va % PGSIZE) != 0)
    800008a6:	03459793          	slli	a5,a1,0x34
    800008aa:	e795                	bnez	a5,800008d6 <uvmunmap+0x46>
    800008ac:	8a2a                	mv	s4,a0
    800008ae:	892e                	mv	s2,a1
    800008b0:	8ab6                	mv	s5,a3
    panic("uvmunmap: not aligned");

  for (a = va; a < va + npages * PGSIZE; a += sz)
    800008b2:	0632                	slli	a2,a2,0xc
    800008b4:	00b609b3          	add	s3,a2,a1
    if ((*pte & PTE_V) == 0)
    {
      printf("va=%ld pte=%ld\n", a, *pte);
      panic("uvmunmap: not mapped");
    }
    if (PTE_FLAGS(*pte) == PTE_V)
    800008b8:	4b85                	li	s7,1
  for (a = va; a < va + npages * PGSIZE; a += sz)
    800008ba:	6b05                	lui	s6,0x1
    800008bc:	0735e163          	bltu	a1,s3,8000091e <uvmunmap+0x8e>
      uint64 pa = PTE2PA(*pte);
      kfree((void *)pa);
    }
    *pte = 0;
  }
}
    800008c0:	60a6                	ld	ra,72(sp)
    800008c2:	6406                	ld	s0,64(sp)
    800008c4:	74e2                	ld	s1,56(sp)
    800008c6:	7942                	ld	s2,48(sp)
    800008c8:	79a2                	ld	s3,40(sp)
    800008ca:	7a02                	ld	s4,32(sp)
    800008cc:	6ae2                	ld	s5,24(sp)
    800008ce:	6b42                	ld	s6,16(sp)
    800008d0:	6ba2                	ld	s7,8(sp)
    800008d2:	6161                	addi	sp,sp,80
    800008d4:	8082                	ret
    panic("uvmunmap: not aligned");
    800008d6:	00007517          	auipc	a0,0x7
    800008da:	8ba50513          	addi	a0,a0,-1862 # 80007190 <etext+0x190>
    800008de:	595040ef          	jal	ra,80005672 <panic>
      panic("uvmunmap: walk");
    800008e2:	00007517          	auipc	a0,0x7
    800008e6:	8c650513          	addi	a0,a0,-1850 # 800071a8 <etext+0x1a8>
    800008ea:	589040ef          	jal	ra,80005672 <panic>
      printf("va=%ld pte=%ld\n", a, *pte);
    800008ee:	85ca                	mv	a1,s2
    800008f0:	00007517          	auipc	a0,0x7
    800008f4:	8c850513          	addi	a0,a0,-1848 # 800071b8 <etext+0x1b8>
    800008f8:	2c7040ef          	jal	ra,800053be <printf>
      panic("uvmunmap: not mapped");
    800008fc:	00007517          	auipc	a0,0x7
    80000900:	8cc50513          	addi	a0,a0,-1844 # 800071c8 <etext+0x1c8>
    80000904:	56f040ef          	jal	ra,80005672 <panic>
      panic("uvmunmap: not a leaf");
    80000908:	00007517          	auipc	a0,0x7
    8000090c:	8d850513          	addi	a0,a0,-1832 # 800071e0 <etext+0x1e0>
    80000910:	563040ef          	jal	ra,80005672 <panic>
    *pte = 0;
    80000914:	0004b023          	sd	zero,0(s1)
  for (a = va; a < va + npages * PGSIZE; a += sz)
    80000918:	995a                	add	s2,s2,s6
    8000091a:	fb3973e3          	bgeu	s2,s3,800008c0 <uvmunmap+0x30>
    if ((pte = walk(pagetable, a, 0)) == 0)
    8000091e:	4601                	li	a2,0
    80000920:	85ca                	mv	a1,s2
    80000922:	8552                	mv	a0,s4
    80000924:	c0bff0ef          	jal	ra,8000052e <walk>
    80000928:	84aa                	mv	s1,a0
    8000092a:	dd45                	beqz	a0,800008e2 <uvmunmap+0x52>
    if ((*pte & PTE_V) == 0)
    8000092c:	6110                	ld	a2,0(a0)
    8000092e:	00167793          	andi	a5,a2,1
    80000932:	dfd5                	beqz	a5,800008ee <uvmunmap+0x5e>
    if (PTE_FLAGS(*pte) == PTE_V)
    80000934:	3ff67793          	andi	a5,a2,1023
    80000938:	fd7788e3          	beq	a5,s7,80000908 <uvmunmap+0x78>
    if (do_free)
    8000093c:	fc0a8ce3          	beqz	s5,80000914 <uvmunmap+0x84>
      uint64 pa = PTE2PA(*pte);
    80000940:	8229                	srli	a2,a2,0xa
      kfree((void *)pa);
    80000942:	00c61513          	slli	a0,a2,0xc
    80000946:	f2aff0ef          	jal	ra,80000070 <kfree>
    8000094a:	b7e9                	j	80000914 <uvmunmap+0x84>

000000008000094c <uvmcreate>:

// create an empty user page table.
// returns 0 if out of memory.
pagetable_t
uvmcreate()
{
    8000094c:	1101                	addi	sp,sp,-32
    8000094e:	ec06                	sd	ra,24(sp)
    80000950:	e822                	sd	s0,16(sp)
    80000952:	e426                	sd	s1,8(sp)
    80000954:	1000                	addi	s0,sp,32
  pagetable_t pagetable;
  pagetable = (pagetable_t)kalloc();
    80000956:	80fff0ef          	jal	ra,80000164 <kalloc>
    8000095a:	84aa                	mv	s1,a0
  if (pagetable == 0)
    8000095c:	c509                	beqz	a0,80000966 <uvmcreate+0x1a>
    return 0;
  memset(pagetable, 0, PGSIZE);
    8000095e:	6605                	lui	a2,0x1
    80000960:	4581                	li	a1,0
    80000962:	951ff0ef          	jal	ra,800002b2 <memset>
  return pagetable;
}
    80000966:	8526                	mv	a0,s1
    80000968:	60e2                	ld	ra,24(sp)
    8000096a:	6442                	ld	s0,16(sp)
    8000096c:	64a2                	ld	s1,8(sp)
    8000096e:	6105                	addi	sp,sp,32
    80000970:	8082                	ret

0000000080000972 <uvmfirst>:

// Load the user initcode into address 0 of pagetable,
// for the very first process.
// sz must be less than a page.
void uvmfirst(pagetable_t pagetable, uchar *src, uint sz)
{
    80000972:	7179                	addi	sp,sp,-48
    80000974:	f406                	sd	ra,40(sp)
    80000976:	f022                	sd	s0,32(sp)
    80000978:	ec26                	sd	s1,24(sp)
    8000097a:	e84a                	sd	s2,16(sp)
    8000097c:	e44e                	sd	s3,8(sp)
    8000097e:	e052                	sd	s4,0(sp)
    80000980:	1800                	addi	s0,sp,48
  char *mem;

  if (sz >= PGSIZE)
    80000982:	6785                	lui	a5,0x1
    80000984:	04f67063          	bgeu	a2,a5,800009c4 <uvmfirst+0x52>
    80000988:	8a2a                	mv	s4,a0
    8000098a:	89ae                	mv	s3,a1
    8000098c:	84b2                	mv	s1,a2
    panic("uvmfirst: more than a page");
  mem = kalloc();
    8000098e:	fd6ff0ef          	jal	ra,80000164 <kalloc>
    80000992:	892a                	mv	s2,a0
  memset(mem, 0, PGSIZE);
    80000994:	6605                	lui	a2,0x1
    80000996:	4581                	li	a1,0
    80000998:	91bff0ef          	jal	ra,800002b2 <memset>
  mappages(pagetable, 0, PGSIZE, (uint64)mem, PTE_W | PTE_R | PTE_X | PTE_U);
    8000099c:	4779                	li	a4,30
    8000099e:	86ca                	mv	a3,s2
    800009a0:	6605                	lui	a2,0x1
    800009a2:	4581                	li	a1,0
    800009a4:	8552                	mv	a0,s4
    800009a6:	ce7ff0ef          	jal	ra,8000068c <mappages>
  memmove(mem, src, sz);
    800009aa:	8626                	mv	a2,s1
    800009ac:	85ce                	mv	a1,s3
    800009ae:	854a                	mv	a0,s2
    800009b0:	95fff0ef          	jal	ra,8000030e <memmove>
}
    800009b4:	70a2                	ld	ra,40(sp)
    800009b6:	7402                	ld	s0,32(sp)
    800009b8:	64e2                	ld	s1,24(sp)
    800009ba:	6942                	ld	s2,16(sp)
    800009bc:	69a2                	ld	s3,8(sp)
    800009be:	6a02                	ld	s4,0(sp)
    800009c0:	6145                	addi	sp,sp,48
    800009c2:	8082                	ret
    panic("uvmfirst: more than a page");
    800009c4:	00007517          	auipc	a0,0x7
    800009c8:	83450513          	addi	a0,a0,-1996 # 800071f8 <etext+0x1f8>
    800009cc:	4a7040ef          	jal	ra,80005672 <panic>

00000000800009d0 <uvmdealloc>:
// newsz.  oldsz and newsz need not be page-aligned, nor does newsz
// need to be less than oldsz.  oldsz can be larger than the actual
// process size.  Returns the new process size.
uint64
uvmdealloc(pagetable_t pagetable, uint64 oldsz, uint64 newsz)
{
    800009d0:	1101                	addi	sp,sp,-32
    800009d2:	ec06                	sd	ra,24(sp)
    800009d4:	e822                	sd	s0,16(sp)
    800009d6:	e426                	sd	s1,8(sp)
    800009d8:	1000                	addi	s0,sp,32
  if (newsz >= oldsz)
    return oldsz;
    800009da:	84ae                	mv	s1,a1
  if (newsz >= oldsz)
    800009dc:	00b67d63          	bgeu	a2,a1,800009f6 <uvmdealloc+0x26>
    800009e0:	84b2                	mv	s1,a2

  if (PGROUNDUP(newsz) < PGROUNDUP(oldsz))
    800009e2:	6785                	lui	a5,0x1
    800009e4:	17fd                	addi	a5,a5,-1 # fff <_entry-0x7ffff001>
    800009e6:	00f60733          	add	a4,a2,a5
    800009ea:	76fd                	lui	a3,0xfffff
    800009ec:	8f75                	and	a4,a4,a3
    800009ee:	97ae                	add	a5,a5,a1
    800009f0:	8ff5                	and	a5,a5,a3
    800009f2:	00f76863          	bltu	a4,a5,80000a02 <uvmdealloc+0x32>
    int npages = (PGROUNDUP(oldsz) - PGROUNDUP(newsz)) / PGSIZE;
    uvmunmap(pagetable, PGROUNDUP(newsz), npages, 1);
  }

  return newsz;
}
    800009f6:	8526                	mv	a0,s1
    800009f8:	60e2                	ld	ra,24(sp)
    800009fa:	6442                	ld	s0,16(sp)
    800009fc:	64a2                	ld	s1,8(sp)
    800009fe:	6105                	addi	sp,sp,32
    80000a00:	8082                	ret
    int npages = (PGROUNDUP(oldsz) - PGROUNDUP(newsz)) / PGSIZE;
    80000a02:	8f99                	sub	a5,a5,a4
    80000a04:	83b1                	srli	a5,a5,0xc
    uvmunmap(pagetable, PGROUNDUP(newsz), npages, 1);
    80000a06:	4685                	li	a3,1
    80000a08:	0007861b          	sext.w	a2,a5
    80000a0c:	85ba                	mv	a1,a4
    80000a0e:	e83ff0ef          	jal	ra,80000890 <uvmunmap>
    80000a12:	b7d5                	j	800009f6 <uvmdealloc+0x26>

0000000080000a14 <uvmalloc>:
{
    80000a14:	711d                	addi	sp,sp,-96
    80000a16:	ec86                	sd	ra,88(sp)
    80000a18:	e8a2                	sd	s0,80(sp)
    80000a1a:	e4a6                	sd	s1,72(sp)
    80000a1c:	e0ca                	sd	s2,64(sp)
    80000a1e:	fc4e                	sd	s3,56(sp)
    80000a20:	f852                	sd	s4,48(sp)
    80000a22:	f456                	sd	s5,40(sp)
    80000a24:	f05a                	sd	s6,32(sp)
    80000a26:	ec5e                	sd	s7,24(sp)
    80000a28:	e862                	sd	s8,16(sp)
    80000a2a:	e466                	sd	s9,8(sp)
    80000a2c:	e06a                	sd	s10,0(sp)
    80000a2e:	1080                	addi	s0,sp,96
    return oldsz;
    80000a30:	892e                	mv	s2,a1
  if (newsz < oldsz)
    80000a32:	0cb66363          	bltu	a2,a1,80000af8 <uvmalloc+0xe4>
    80000a36:	8a2a                	mv	s4,a0
    80000a38:	89b2                	mv	s3,a2
  oldsz = PGROUNDUP(oldsz);
    80000a3a:	6785                	lui	a5,0x1
    80000a3c:	17fd                	addi	a5,a5,-1 # fff <_entry-0x7ffff001>
    80000a3e:	95be                	add	a1,a1,a5
    80000a40:	7cfd                	lui	s9,0xfffff
    80000a42:	0195fcb3          	and	s9,a1,s9
  for (a = oldsz; a < newsz; a += sz)
    80000a46:	0cccf863          	bgeu	s9,a2,80000b16 <uvmalloc+0x102>
    80000a4a:	84e6                	mv	s1,s9
    if (a % SUPERPGSIZE == 0 && newsz - a >= SUPERPGSIZE) { //superpage
    80000a4c:	00200ab7          	lui	s5,0x200
    80000a50:	fffa8b13          	addi	s6,s5,-1 # 1fffff <_entry-0x7fe00001>
      if (mappages(pagetable, a, sz, (uint64)mem, PTE_R | PTE_U | xperm) != 0)
    80000a54:	0126eb93          	ori	s7,a3,18
      if (supermappages(pagetable, a, (uint64)mem, PTE_R | PTE_W | PTE_U | xperm) != 0) {
    80000a58:	0166ec13          	ori	s8,a3,22
    80000a5c:	a0a1                	j	80000aa4 <uvmalloc+0x90>
        uvmdealloc(pagetable, a, oldsz);
    80000a5e:	8666                	mv	a2,s9
    80000a60:	85a6                	mv	a1,s1
    80000a62:	8552                	mv	a0,s4
    80000a64:	f6dff0ef          	jal	ra,800009d0 <uvmdealloc>
        return 0;
    80000a68:	a841                	j	80000af8 <uvmalloc+0xe4>
        superfree(mem);
    80000a6a:	856a                	mv	a0,s10
    80000a6c:	fb2ff0ef          	jal	ra,8000021e <superfree>
        uvmdealloc(pagetable, a, oldsz);
    80000a70:	8666                	mv	a2,s9
    80000a72:	85a6                	mv	a1,s1
    80000a74:	8552                	mv	a0,s4
    80000a76:	f5bff0ef          	jal	ra,800009d0 <uvmdealloc>
        return 0;
    80000a7a:	a8bd                	j	80000af8 <uvmalloc+0xe4>
      mem = kalloc();
    80000a7c:	ee8ff0ef          	jal	ra,80000164 <kalloc>
    80000a80:	892a                	mv	s2,a0
      if (mem == 0)
    80000a82:	c931                	beqz	a0,80000ad6 <uvmalloc+0xc2>
      memset(mem, 0, sz);
    80000a84:	6605                	lui	a2,0x1
    80000a86:	4581                	li	a1,0
    80000a88:	82bff0ef          	jal	ra,800002b2 <memset>
      if (mappages(pagetable, a, sz, (uint64)mem, PTE_R | PTE_U | xperm) != 0)
    80000a8c:	875e                	mv	a4,s7
    80000a8e:	86ca                	mv	a3,s2
    80000a90:	6605                	lui	a2,0x1
    80000a92:	85a6                	mv	a1,s1
    80000a94:	8552                	mv	a0,s4
    80000a96:	bf7ff0ef          	jal	ra,8000068c <mappages>
    80000a9a:	e521                	bnez	a0,80000ae2 <uvmalloc+0xce>
      sz = PGSIZE;
    80000a9c:	6785                	lui	a5,0x1
  for (a = oldsz; a < newsz; a += sz)
    80000a9e:	94be                	add	s1,s1,a5
    80000aa0:	0534fb63          	bgeu	s1,s3,80000af6 <uvmalloc+0xe2>
    if (a % SUPERPGSIZE == 0 && newsz - a >= SUPERPGSIZE) { //superpage
    80000aa4:	0164f933          	and	s2,s1,s6
    80000aa8:	fc091ae3          	bnez	s2,80000a7c <uvmalloc+0x68>
    80000aac:	409987b3          	sub	a5,s3,s1
    80000ab0:	fd57e6e3          	bltu	a5,s5,80000a7c <uvmalloc+0x68>
      mem = superalloc();
    80000ab4:	f0aff0ef          	jal	ra,800001be <superalloc>
    80000ab8:	8d2a                	mv	s10,a0
      if (mem == 0) {
    80000aba:	d155                	beqz	a0,80000a5e <uvmalloc+0x4a>
      memset(mem, 0, sz);
    80000abc:	8656                	mv	a2,s5
    80000abe:	4581                	li	a1,0
    80000ac0:	ff2ff0ef          	jal	ra,800002b2 <memset>
      if (supermappages(pagetable, a, (uint64)mem, PTE_R | PTE_W | PTE_U | xperm) != 0) {
    80000ac4:	86e2                	mv	a3,s8
    80000ac6:	866a                	mv	a2,s10
    80000ac8:	85a6                	mv	a1,s1
    80000aca:	8552                	mv	a0,s4
    80000acc:	d67ff0ef          	jal	ra,80000832 <supermappages>
    80000ad0:	fd49                	bnez	a0,80000a6a <uvmalloc+0x56>
      sz = SUPERPGSIZE;
    80000ad2:	87d6                	mv	a5,s5
    80000ad4:	b7e9                	j	80000a9e <uvmalloc+0x8a>
        uvmdealloc(pagetable, a, oldsz);
    80000ad6:	8666                	mv	a2,s9
    80000ad8:	85a6                	mv	a1,s1
    80000ada:	8552                	mv	a0,s4
    80000adc:	ef5ff0ef          	jal	ra,800009d0 <uvmdealloc>
        return 0;
    80000ae0:	a821                	j	80000af8 <uvmalloc+0xe4>
        kfree(mem);
    80000ae2:	854a                	mv	a0,s2
    80000ae4:	d8cff0ef          	jal	ra,80000070 <kfree>
        uvmdealloc(pagetable, a, oldsz);
    80000ae8:	8666                	mv	a2,s9
    80000aea:	85a6                	mv	a1,s1
    80000aec:	8552                	mv	a0,s4
    80000aee:	ee3ff0ef          	jal	ra,800009d0 <uvmdealloc>
        return 0;
    80000af2:	4901                	li	s2,0
    80000af4:	a011                	j	80000af8 <uvmalloc+0xe4>
  return newsz;
    80000af6:	894e                	mv	s2,s3
}
    80000af8:	854a                	mv	a0,s2
    80000afa:	60e6                	ld	ra,88(sp)
    80000afc:	6446                	ld	s0,80(sp)
    80000afe:	64a6                	ld	s1,72(sp)
    80000b00:	6906                	ld	s2,64(sp)
    80000b02:	79e2                	ld	s3,56(sp)
    80000b04:	7a42                	ld	s4,48(sp)
    80000b06:	7aa2                	ld	s5,40(sp)
    80000b08:	7b02                	ld	s6,32(sp)
    80000b0a:	6be2                	ld	s7,24(sp)
    80000b0c:	6c42                	ld	s8,16(sp)
    80000b0e:	6ca2                	ld	s9,8(sp)
    80000b10:	6d02                	ld	s10,0(sp)
    80000b12:	6125                	addi	sp,sp,96
    80000b14:	8082                	ret
  return newsz;
    80000b16:	8932                	mv	s2,a2
    80000b18:	b7c5                	j	80000af8 <uvmalloc+0xe4>

0000000080000b1a <freewalk>:

// Recursively free page-table pages.
// All leaf mappings must already have been removed.
void freewalk(pagetable_t pagetable)
{
    80000b1a:	7179                	addi	sp,sp,-48
    80000b1c:	f406                	sd	ra,40(sp)
    80000b1e:	f022                	sd	s0,32(sp)
    80000b20:	ec26                	sd	s1,24(sp)
    80000b22:	e84a                	sd	s2,16(sp)
    80000b24:	e44e                	sd	s3,8(sp)
    80000b26:	e052                	sd	s4,0(sp)
    80000b28:	1800                	addi	s0,sp,48
    80000b2a:	8a2a                	mv	s4,a0
  // there are 2^9 = 512 PTEs in a page table.
  for (int i = 0; i < 512; i++)
    80000b2c:	84aa                	mv	s1,a0
    80000b2e:	6905                	lui	s2,0x1
    80000b30:	992a                	add	s2,s2,a0
  {
    pte_t pte = pagetable[i];
    if ((pte & PTE_V) && (pte & (PTE_R | PTE_W | PTE_X)) == 0)
    80000b32:	4985                	li	s3,1
    80000b34:	a819                	j	80000b4a <freewalk+0x30>
    {
      // this PTE points to a lower-level page table.
      uint64 child = PTE2PA(pte);
    80000b36:	83a9                	srli	a5,a5,0xa
      freewalk((pagetable_t)child);
    80000b38:	00c79513          	slli	a0,a5,0xc
    80000b3c:	fdfff0ef          	jal	ra,80000b1a <freewalk>
      pagetable[i] = 0;
    80000b40:	0004b023          	sd	zero,0(s1)
  for (int i = 0; i < 512; i++)
    80000b44:	04a1                	addi	s1,s1,8
    80000b46:	01248f63          	beq	s1,s2,80000b64 <freewalk+0x4a>
    pte_t pte = pagetable[i];
    80000b4a:	609c                	ld	a5,0(s1)
    if ((pte & PTE_V) && (pte & (PTE_R | PTE_W | PTE_X)) == 0)
    80000b4c:	00f7f713          	andi	a4,a5,15
    80000b50:	ff3703e3          	beq	a4,s3,80000b36 <freewalk+0x1c>
    }
    else if (pte & PTE_V)
    80000b54:	8b85                	andi	a5,a5,1
    80000b56:	d7fd                	beqz	a5,80000b44 <freewalk+0x2a>
    {
      panic("freewalk: leaf");
    80000b58:	00006517          	auipc	a0,0x6
    80000b5c:	6c050513          	addi	a0,a0,1728 # 80007218 <etext+0x218>
    80000b60:	313040ef          	jal	ra,80005672 <panic>
    }
  }
  kfree((void *)pagetable);
    80000b64:	8552                	mv	a0,s4
    80000b66:	d0aff0ef          	jal	ra,80000070 <kfree>
}
    80000b6a:	70a2                	ld	ra,40(sp)
    80000b6c:	7402                	ld	s0,32(sp)
    80000b6e:	64e2                	ld	s1,24(sp)
    80000b70:	6942                	ld	s2,16(sp)
    80000b72:	69a2                	ld	s3,8(sp)
    80000b74:	6a02                	ld	s4,0(sp)
    80000b76:	6145                	addi	sp,sp,48
    80000b78:	8082                	ret

0000000080000b7a <uvmfree>:

// Free user memory pages,
// then free page-table pages.
void uvmfree(pagetable_t pagetable, uint64 sz)
{
    80000b7a:	1101                	addi	sp,sp,-32
    80000b7c:	ec06                	sd	ra,24(sp)
    80000b7e:	e822                	sd	s0,16(sp)
    80000b80:	e426                	sd	s1,8(sp)
    80000b82:	1000                	addi	s0,sp,32
    80000b84:	84aa                	mv	s1,a0
  if (sz > 0)
    80000b86:	e989                	bnez	a1,80000b98 <uvmfree+0x1e>
    uvmunmap(pagetable, 0, PGROUNDUP(sz) / PGSIZE, 1);
  freewalk(pagetable);
    80000b88:	8526                	mv	a0,s1
    80000b8a:	f91ff0ef          	jal	ra,80000b1a <freewalk>
}
    80000b8e:	60e2                	ld	ra,24(sp)
    80000b90:	6442                	ld	s0,16(sp)
    80000b92:	64a2                	ld	s1,8(sp)
    80000b94:	6105                	addi	sp,sp,32
    80000b96:	8082                	ret
    uvmunmap(pagetable, 0, PGROUNDUP(sz) / PGSIZE, 1);
    80000b98:	6785                	lui	a5,0x1
    80000b9a:	17fd                	addi	a5,a5,-1 # fff <_entry-0x7ffff001>
    80000b9c:	95be                	add	a1,a1,a5
    80000b9e:	4685                	li	a3,1
    80000ba0:	00c5d613          	srli	a2,a1,0xc
    80000ba4:	4581                	li	a1,0
    80000ba6:	cebff0ef          	jal	ra,80000890 <uvmunmap>
    80000baa:	bff9                	j	80000b88 <uvmfree+0xe>

0000000080000bac <uvmcopy>:
  uint64 pa, i;
  uint flags;
  char *mem;
  int szinc;

  for (i = 0; i < sz; i += szinc)
    80000bac:	c65d                	beqz	a2,80000c5a <uvmcopy+0xae>
{
    80000bae:	715d                	addi	sp,sp,-80
    80000bb0:	e486                	sd	ra,72(sp)
    80000bb2:	e0a2                	sd	s0,64(sp)
    80000bb4:	fc26                	sd	s1,56(sp)
    80000bb6:	f84a                	sd	s2,48(sp)
    80000bb8:	f44e                	sd	s3,40(sp)
    80000bba:	f052                	sd	s4,32(sp)
    80000bbc:	ec56                	sd	s5,24(sp)
    80000bbe:	e85a                	sd	s6,16(sp)
    80000bc0:	e45e                	sd	s7,8(sp)
    80000bc2:	0880                	addi	s0,sp,80
    80000bc4:	8b2a                	mv	s6,a0
    80000bc6:	8aae                	mv	s5,a1
    80000bc8:	8a32                	mv	s4,a2
  for (i = 0; i < sz; i += szinc)
    80000bca:	4981                	li	s3,0
  {
    szinc = PGSIZE;
    if ((pte = walk(old, i, 0)) == 0)
    80000bcc:	4601                	li	a2,0
    80000bce:	85ce                	mv	a1,s3
    80000bd0:	855a                	mv	a0,s6
    80000bd2:	95dff0ef          	jal	ra,8000052e <walk>
    80000bd6:	c121                	beqz	a0,80000c16 <uvmcopy+0x6a>
      panic("uvmcopy: pte should exist");
    if ((*pte & PTE_V) == 0)
    80000bd8:	6118                	ld	a4,0(a0)
    80000bda:	00177793          	andi	a5,a4,1
    80000bde:	c3b1                	beqz	a5,80000c22 <uvmcopy+0x76>
      panic("uvmcopy: page not present");
    pa = PTE2PA(*pte);
    80000be0:	00a75593          	srli	a1,a4,0xa
    80000be4:	00c59b93          	slli	s7,a1,0xc
    flags = PTE_FLAGS(*pte);
    80000be8:	3ff77493          	andi	s1,a4,1023
    if ((mem = kalloc()) == 0)
    80000bec:	d78ff0ef          	jal	ra,80000164 <kalloc>
    80000bf0:	892a                	mv	s2,a0
    80000bf2:	c129                	beqz	a0,80000c34 <uvmcopy+0x88>
      goto err;
    memmove(mem, (char *)pa, PGSIZE);
    80000bf4:	6605                	lui	a2,0x1
    80000bf6:	85de                	mv	a1,s7
    80000bf8:	f16ff0ef          	jal	ra,8000030e <memmove>
    if (mappages(new, i, PGSIZE, (uint64)mem, flags) != 0)
    80000bfc:	8726                	mv	a4,s1
    80000bfe:	86ca                	mv	a3,s2
    80000c00:	6605                	lui	a2,0x1
    80000c02:	85ce                	mv	a1,s3
    80000c04:	8556                	mv	a0,s5
    80000c06:	a87ff0ef          	jal	ra,8000068c <mappages>
    80000c0a:	e115                	bnez	a0,80000c2e <uvmcopy+0x82>
  for (i = 0; i < sz; i += szinc)
    80000c0c:	6785                	lui	a5,0x1
    80000c0e:	99be                	add	s3,s3,a5
    80000c10:	fb49eee3          	bltu	s3,s4,80000bcc <uvmcopy+0x20>
    80000c14:	a805                	j	80000c44 <uvmcopy+0x98>
      panic("uvmcopy: pte should exist");
    80000c16:	00006517          	auipc	a0,0x6
    80000c1a:	61250513          	addi	a0,a0,1554 # 80007228 <etext+0x228>
    80000c1e:	255040ef          	jal	ra,80005672 <panic>
      panic("uvmcopy: page not present");
    80000c22:	00006517          	auipc	a0,0x6
    80000c26:	62650513          	addi	a0,a0,1574 # 80007248 <etext+0x248>
    80000c2a:	249040ef          	jal	ra,80005672 <panic>
    {
      kfree(mem);
    80000c2e:	854a                	mv	a0,s2
    80000c30:	c40ff0ef          	jal	ra,80000070 <kfree>
    }
  }
  return 0;

err:
  uvmunmap(new, 0, i / PGSIZE, 1);
    80000c34:	4685                	li	a3,1
    80000c36:	00c9d613          	srli	a2,s3,0xc
    80000c3a:	4581                	li	a1,0
    80000c3c:	8556                	mv	a0,s5
    80000c3e:	c53ff0ef          	jal	ra,80000890 <uvmunmap>
  return -1;
    80000c42:	557d                	li	a0,-1
}
    80000c44:	60a6                	ld	ra,72(sp)
    80000c46:	6406                	ld	s0,64(sp)
    80000c48:	74e2                	ld	s1,56(sp)
    80000c4a:	7942                	ld	s2,48(sp)
    80000c4c:	79a2                	ld	s3,40(sp)
    80000c4e:	7a02                	ld	s4,32(sp)
    80000c50:	6ae2                	ld	s5,24(sp)
    80000c52:	6b42                	ld	s6,16(sp)
    80000c54:	6ba2                	ld	s7,8(sp)
    80000c56:	6161                	addi	sp,sp,80
    80000c58:	8082                	ret
  return 0;
    80000c5a:	4501                	li	a0,0
}
    80000c5c:	8082                	ret

0000000080000c5e <uvmclear>:

// mark a PTE invalid for user access.
// used by exec for the user stack guard page.
void uvmclear(pagetable_t pagetable, uint64 va)
{
    80000c5e:	1141                	addi	sp,sp,-16
    80000c60:	e406                	sd	ra,8(sp)
    80000c62:	e022                	sd	s0,0(sp)
    80000c64:	0800                	addi	s0,sp,16
  pte_t *pte;

  pte = walk(pagetable, va, 0);
    80000c66:	4601                	li	a2,0
    80000c68:	8c7ff0ef          	jal	ra,8000052e <walk>
  if (pte == 0)
    80000c6c:	c901                	beqz	a0,80000c7c <uvmclear+0x1e>
    panic("uvmclear");
  *pte &= ~PTE_U;
    80000c6e:	611c                	ld	a5,0(a0)
    80000c70:	9bbd                	andi	a5,a5,-17
    80000c72:	e11c                	sd	a5,0(a0)
}
    80000c74:	60a2                	ld	ra,8(sp)
    80000c76:	6402                	ld	s0,0(sp)
    80000c78:	0141                	addi	sp,sp,16
    80000c7a:	8082                	ret
    panic("uvmclear");
    80000c7c:	00006517          	auipc	a0,0x6
    80000c80:	5ec50513          	addi	a0,a0,1516 # 80007268 <etext+0x268>
    80000c84:	1ef040ef          	jal	ra,80005672 <panic>

0000000080000c88 <copyout>:
int copyout(pagetable_t pagetable, uint64 dstva, char *src, uint64 len)
{
  uint64 n, va0, pa0;
  pte_t *pte;

  while (len > 0)
    80000c88:	c6c1                	beqz	a3,80000d10 <copyout+0x88>
{
    80000c8a:	711d                	addi	sp,sp,-96
    80000c8c:	ec86                	sd	ra,88(sp)
    80000c8e:	e8a2                	sd	s0,80(sp)
    80000c90:	e4a6                	sd	s1,72(sp)
    80000c92:	e0ca                	sd	s2,64(sp)
    80000c94:	fc4e                	sd	s3,56(sp)
    80000c96:	f852                	sd	s4,48(sp)
    80000c98:	f456                	sd	s5,40(sp)
    80000c9a:	f05a                	sd	s6,32(sp)
    80000c9c:	ec5e                	sd	s7,24(sp)
    80000c9e:	e862                	sd	s8,16(sp)
    80000ca0:	e466                	sd	s9,8(sp)
    80000ca2:	1080                	addi	s0,sp,96
    80000ca4:	8b2a                	mv	s6,a0
    80000ca6:	8a2e                	mv	s4,a1
    80000ca8:	8ab2                	mv	s5,a2
    80000caa:	89b6                	mv	s3,a3
  {
    va0 = PGROUNDDOWN(dstva);
    80000cac:	74fd                	lui	s1,0xfffff
    80000cae:	8ced                	and	s1,s1,a1
    if (va0 >= MAXVA)
    80000cb0:	57fd                	li	a5,-1
    80000cb2:	83e9                	srli	a5,a5,0x1a
    80000cb4:	0697e063          	bltu	a5,s1,80000d14 <copyout+0x8c>
    80000cb8:	6c05                	lui	s8,0x1
    80000cba:	8bbe                	mv	s7,a5
    80000cbc:	a015                	j	80000ce0 <copyout+0x58>
    if (pa0 == 0)
      return -1;
    n = PGSIZE - (dstva - va0);
    if (n > len)
      n = len;
    memmove((void *)(pa0 + (dstva - va0)), src, n);
    80000cbe:	409a04b3          	sub	s1,s4,s1
    80000cc2:	0009061b          	sext.w	a2,s2
    80000cc6:	85d6                	mv	a1,s5
    80000cc8:	9526                	add	a0,a0,s1
    80000cca:	e44ff0ef          	jal	ra,8000030e <memmove>

    len -= n;
    80000cce:	412989b3          	sub	s3,s3,s2
    src += n;
    80000cd2:	9aca                	add	s5,s5,s2
  while (len > 0)
    80000cd4:	02098c63          	beqz	s3,80000d0c <copyout+0x84>
    if (va0 >= MAXVA)
    80000cd8:	059be063          	bltu	s7,s9,80000d18 <copyout+0x90>
    va0 = PGROUNDDOWN(dstva);
    80000cdc:	84e6                	mv	s1,s9
    dstva = va0 + PGSIZE;
    80000cde:	8a66                	mv	s4,s9
    if ((pte = walk(pagetable, va0, 0)) == 0)
    80000ce0:	4601                	li	a2,0
    80000ce2:	85a6                	mv	a1,s1
    80000ce4:	855a                	mv	a0,s6
    80000ce6:	849ff0ef          	jal	ra,8000052e <walk>
    80000cea:	c90d                	beqz	a0,80000d1c <copyout+0x94>
    if ((*pte & PTE_W) == 0)
    80000cec:	611c                	ld	a5,0(a0)
    80000cee:	8b91                	andi	a5,a5,4
    80000cf0:	c7a1                	beqz	a5,80000d38 <copyout+0xb0>
    pa0 = walkaddr(pagetable, va0);
    80000cf2:	85a6                	mv	a1,s1
    80000cf4:	855a                	mv	a0,s6
    80000cf6:	959ff0ef          	jal	ra,8000064e <walkaddr>
    if (pa0 == 0)
    80000cfa:	c129                	beqz	a0,80000d3c <copyout+0xb4>
    n = PGSIZE - (dstva - va0);
    80000cfc:	01848cb3          	add	s9,s1,s8
    80000d00:	414c8933          	sub	s2,s9,s4
    80000d04:	fb29fde3          	bgeu	s3,s2,80000cbe <copyout+0x36>
    80000d08:	894e                	mv	s2,s3
    80000d0a:	bf55                	j	80000cbe <copyout+0x36>
  }
  return 0;
    80000d0c:	4501                	li	a0,0
    80000d0e:	a801                	j	80000d1e <copyout+0x96>
    80000d10:	4501                	li	a0,0
}
    80000d12:	8082                	ret
      return -1;
    80000d14:	557d                	li	a0,-1
    80000d16:	a021                	j	80000d1e <copyout+0x96>
    80000d18:	557d                	li	a0,-1
    80000d1a:	a011                	j	80000d1e <copyout+0x96>
      return -1;
    80000d1c:	557d                	li	a0,-1
}
    80000d1e:	60e6                	ld	ra,88(sp)
    80000d20:	6446                	ld	s0,80(sp)
    80000d22:	64a6                	ld	s1,72(sp)
    80000d24:	6906                	ld	s2,64(sp)
    80000d26:	79e2                	ld	s3,56(sp)
    80000d28:	7a42                	ld	s4,48(sp)
    80000d2a:	7aa2                	ld	s5,40(sp)
    80000d2c:	7b02                	ld	s6,32(sp)
    80000d2e:	6be2                	ld	s7,24(sp)
    80000d30:	6c42                	ld	s8,16(sp)
    80000d32:	6ca2                	ld	s9,8(sp)
    80000d34:	6125                	addi	sp,sp,96
    80000d36:	8082                	ret
      return -1;
    80000d38:	557d                	li	a0,-1
    80000d3a:	b7d5                	j	80000d1e <copyout+0x96>
      return -1;
    80000d3c:	557d                	li	a0,-1
    80000d3e:	b7c5                	j	80000d1e <copyout+0x96>

0000000080000d40 <copyin>:
// Return 0 on success, -1 on error.
int copyin(pagetable_t pagetable, char *dst, uint64 srcva, uint64 len)
{
  uint64 n, va0, pa0;

  while (len > 0)
    80000d40:	c6a5                	beqz	a3,80000da8 <copyin+0x68>
{
    80000d42:	715d                	addi	sp,sp,-80
    80000d44:	e486                	sd	ra,72(sp)
    80000d46:	e0a2                	sd	s0,64(sp)
    80000d48:	fc26                	sd	s1,56(sp)
    80000d4a:	f84a                	sd	s2,48(sp)
    80000d4c:	f44e                	sd	s3,40(sp)
    80000d4e:	f052                	sd	s4,32(sp)
    80000d50:	ec56                	sd	s5,24(sp)
    80000d52:	e85a                	sd	s6,16(sp)
    80000d54:	e45e                	sd	s7,8(sp)
    80000d56:	e062                	sd	s8,0(sp)
    80000d58:	0880                	addi	s0,sp,80
    80000d5a:	8b2a                	mv	s6,a0
    80000d5c:	8a2e                	mv	s4,a1
    80000d5e:	8c32                	mv	s8,a2
    80000d60:	89b6                	mv	s3,a3
  {
    va0 = PGROUNDDOWN(srcva);
    80000d62:	7bfd                	lui	s7,0xfffff
    pa0 = walkaddr(pagetable, va0);
    if (pa0 == 0)
      return -1;
    n = PGSIZE - (srcva - va0);
    80000d64:	6a85                	lui	s5,0x1
    80000d66:	a00d                	j	80000d88 <copyin+0x48>
    if (n > len)
      n = len;
    memmove(dst, (void *)(pa0 + (srcva - va0)), n);
    80000d68:	018505b3          	add	a1,a0,s8
    80000d6c:	0004861b          	sext.w	a2,s1
    80000d70:	412585b3          	sub	a1,a1,s2
    80000d74:	8552                	mv	a0,s4
    80000d76:	d98ff0ef          	jal	ra,8000030e <memmove>

    len -= n;
    80000d7a:	409989b3          	sub	s3,s3,s1
    dst += n;
    80000d7e:	9a26                	add	s4,s4,s1
    srcva = va0 + PGSIZE;
    80000d80:	01590c33          	add	s8,s2,s5
  while (len > 0)
    80000d84:	02098063          	beqz	s3,80000da4 <copyin+0x64>
    va0 = PGROUNDDOWN(srcva);
    80000d88:	017c7933          	and	s2,s8,s7
    pa0 = walkaddr(pagetable, va0);
    80000d8c:	85ca                	mv	a1,s2
    80000d8e:	855a                	mv	a0,s6
    80000d90:	8bfff0ef          	jal	ra,8000064e <walkaddr>
    if (pa0 == 0)
    80000d94:	cd01                	beqz	a0,80000dac <copyin+0x6c>
    n = PGSIZE - (srcva - va0);
    80000d96:	418904b3          	sub	s1,s2,s8
    80000d9a:	94d6                	add	s1,s1,s5
    80000d9c:	fc99f6e3          	bgeu	s3,s1,80000d68 <copyin+0x28>
    80000da0:	84ce                	mv	s1,s3
    80000da2:	b7d9                	j	80000d68 <copyin+0x28>
  }
  return 0;
    80000da4:	4501                	li	a0,0
    80000da6:	a021                	j	80000dae <copyin+0x6e>
    80000da8:	4501                	li	a0,0
}
    80000daa:	8082                	ret
      return -1;
    80000dac:	557d                	li	a0,-1
}
    80000dae:	60a6                	ld	ra,72(sp)
    80000db0:	6406                	ld	s0,64(sp)
    80000db2:	74e2                	ld	s1,56(sp)
    80000db4:	7942                	ld	s2,48(sp)
    80000db6:	79a2                	ld	s3,40(sp)
    80000db8:	7a02                	ld	s4,32(sp)
    80000dba:	6ae2                	ld	s5,24(sp)
    80000dbc:	6b42                	ld	s6,16(sp)
    80000dbe:	6ba2                	ld	s7,8(sp)
    80000dc0:	6c02                	ld	s8,0(sp)
    80000dc2:	6161                	addi	sp,sp,80
    80000dc4:	8082                	ret

0000000080000dc6 <copyinstr>:
int copyinstr(pagetable_t pagetable, char *dst, uint64 srcva, uint64 max)
{
  uint64 n, va0, pa0;
  int got_null = 0;

  while (got_null == 0 && max > 0)
    80000dc6:	c2cd                	beqz	a3,80000e68 <copyinstr+0xa2>
{
    80000dc8:	715d                	addi	sp,sp,-80
    80000dca:	e486                	sd	ra,72(sp)
    80000dcc:	e0a2                	sd	s0,64(sp)
    80000dce:	fc26                	sd	s1,56(sp)
    80000dd0:	f84a                	sd	s2,48(sp)
    80000dd2:	f44e                	sd	s3,40(sp)
    80000dd4:	f052                	sd	s4,32(sp)
    80000dd6:	ec56                	sd	s5,24(sp)
    80000dd8:	e85a                	sd	s6,16(sp)
    80000dda:	e45e                	sd	s7,8(sp)
    80000ddc:	0880                	addi	s0,sp,80
    80000dde:	8a2a                	mv	s4,a0
    80000de0:	8b2e                	mv	s6,a1
    80000de2:	8bb2                	mv	s7,a2
    80000de4:	84b6                	mv	s1,a3
  {
    va0 = PGROUNDDOWN(srcva);
    80000de6:	7afd                	lui	s5,0xfffff
    pa0 = walkaddr(pagetable, va0);
    if (pa0 == 0)
      return -1;
    n = PGSIZE - (srcva - va0);
    80000de8:	6985                	lui	s3,0x1
    80000dea:	a02d                	j	80000e14 <copyinstr+0x4e>
    char *p = (char *)(pa0 + (srcva - va0));
    while (n > 0)
    {
      if (*p == '\0')
      {
        *dst = '\0';
    80000dec:	00078023          	sb	zero,0(a5) # 1000 <_entry-0x7ffff000>
    80000df0:	4785                	li	a5,1
      dst++;
    }

    srcva = va0 + PGSIZE;
  }
  if (got_null)
    80000df2:	37fd                	addiw	a5,a5,-1
    80000df4:	0007851b          	sext.w	a0,a5
  }
  else
  {
    return -1;
  }
}
    80000df8:	60a6                	ld	ra,72(sp)
    80000dfa:	6406                	ld	s0,64(sp)
    80000dfc:	74e2                	ld	s1,56(sp)
    80000dfe:	7942                	ld	s2,48(sp)
    80000e00:	79a2                	ld	s3,40(sp)
    80000e02:	7a02                	ld	s4,32(sp)
    80000e04:	6ae2                	ld	s5,24(sp)
    80000e06:	6b42                	ld	s6,16(sp)
    80000e08:	6ba2                	ld	s7,8(sp)
    80000e0a:	6161                	addi	sp,sp,80
    80000e0c:	8082                	ret
    srcva = va0 + PGSIZE;
    80000e0e:	01390bb3          	add	s7,s2,s3
  while (got_null == 0 && max > 0)
    80000e12:	c4b9                	beqz	s1,80000e60 <copyinstr+0x9a>
    va0 = PGROUNDDOWN(srcva);
    80000e14:	015bf933          	and	s2,s7,s5
    pa0 = walkaddr(pagetable, va0);
    80000e18:	85ca                	mv	a1,s2
    80000e1a:	8552                	mv	a0,s4
    80000e1c:	833ff0ef          	jal	ra,8000064e <walkaddr>
    if (pa0 == 0)
    80000e20:	c131                	beqz	a0,80000e64 <copyinstr+0x9e>
    n = PGSIZE - (srcva - va0);
    80000e22:	417906b3          	sub	a3,s2,s7
    80000e26:	96ce                	add	a3,a3,s3
    80000e28:	00d4f363          	bgeu	s1,a3,80000e2e <copyinstr+0x68>
    80000e2c:	86a6                	mv	a3,s1
    char *p = (char *)(pa0 + (srcva - va0));
    80000e2e:	955e                	add	a0,a0,s7
    80000e30:	41250533          	sub	a0,a0,s2
    while (n > 0)
    80000e34:	dee9                	beqz	a3,80000e0e <copyinstr+0x48>
    80000e36:	87da                	mv	a5,s6
      if (*p == '\0')
    80000e38:	41650633          	sub	a2,a0,s6
    80000e3c:	fff48593          	addi	a1,s1,-1 # ffffffffffffefff <end+0xffffffff7ffde02f>
    80000e40:	95da                	add	a1,a1,s6
    while (n > 0)
    80000e42:	96da                	add	a3,a3,s6
      if (*p == '\0')
    80000e44:	00f60733          	add	a4,a2,a5
    80000e48:	00074703          	lbu	a4,0(a4)
    80000e4c:	d345                	beqz	a4,80000dec <copyinstr+0x26>
        *dst = *p;
    80000e4e:	00e78023          	sb	a4,0(a5)
      --max;
    80000e52:	40f584b3          	sub	s1,a1,a5
      dst++;
    80000e56:	0785                	addi	a5,a5,1
    while (n > 0)
    80000e58:	fed796e3          	bne	a5,a3,80000e44 <copyinstr+0x7e>
      dst++;
    80000e5c:	8b3e                	mv	s6,a5
    80000e5e:	bf45                	j	80000e0e <copyinstr+0x48>
    80000e60:	4781                	li	a5,0
    80000e62:	bf41                	j	80000df2 <copyinstr+0x2c>
      return -1;
    80000e64:	557d                	li	a0,-1
    80000e66:	bf49                	j	80000df8 <copyinstr+0x32>
  int got_null = 0;
    80000e68:	4781                	li	a5,0
  if (got_null)
    80000e6a:	37fd                	addiw	a5,a5,-1
    80000e6c:	0007851b          	sext.w	a0,a5
}
    80000e70:	8082                	ret

0000000080000e72 <vmprint_recurse>:
  vmprint_recurse(pagetable, 0, 0); // start the recursion with depth 0
}
#endif

void vmprint_recurse(pagetable_t pagetable, int depth, uint64 va_recursive)
{ // seperate function so we can keep track of depth using a parameter
    80000e72:	7119                	addi	sp,sp,-128
    80000e74:	fc86                	sd	ra,120(sp)
    80000e76:	f8a2                	sd	s0,112(sp)
    80000e78:	f4a6                	sd	s1,104(sp)
    80000e7a:	f0ca                	sd	s2,96(sp)
    80000e7c:	ecce                	sd	s3,88(sp)
    80000e7e:	e8d2                	sd	s4,80(sp)
    80000e80:	e4d6                	sd	s5,72(sp)
    80000e82:	e0da                	sd	s6,64(sp)
    80000e84:	fc5e                	sd	s7,56(sp)
    80000e86:	f862                	sd	s8,48(sp)
    80000e88:	f466                	sd	s9,40(sp)
    80000e8a:	f06a                	sd	s10,32(sp)
    80000e8c:	ec6e                	sd	s11,24(sp)
    80000e8e:	0100                	addi	s0,sp,128
    80000e90:	8aae                	mv	s5,a1
    80000e92:	8d32                	mv	s10,a2
    { // skip the pte if it's not valid per lab spec
      continue;
    }

    // reconstruct va using i, px shift, and the previous va
    uint64 va = va_recursive | ((uint64)i << PXSHIFT(2 - depth));
    80000e94:	4789                	li	a5,2
    80000e96:	9f8d                	subw	a5,a5,a1
    80000e98:	00379c9b          	slliw	s9,a5,0x3
    80000e9c:	00fc8cbb          	addw	s9,s9,a5
    80000ea0:	2cb1                	addiw	s9,s9,12 # fffffffffffff00c <end+0xffffffff7ffde03c>
    80000ea2:	8a2a                	mv	s4,a0
    80000ea4:	4981                	li	s3,0
      printf(".. ");
    }
    printf("..%p: pte %p pa %p\n", (void *)va, (void *)pte, (void *)PTE2PA(pte));

    // recursive block
    if ((pte & PTE_V) && (pte & (PTE_R | PTE_W | PTE_X)) == 0)
    80000ea6:	4d85                	li	s11,1
    {
      uint64 child_pa = PTE2PA(pte); // get child pa to convert to a pagetable
      vmprint_recurse((pagetable_t)child_pa, depth + 1, va);
    80000ea8:	0015879b          	addiw	a5,a1,1
    80000eac:	f8f43423          	sd	a5,-120(s0)
      printf(".. ");
    80000eb0:	00006b17          	auipc	s6,0x6
    80000eb4:	3d0b0b13          	addi	s6,s6,976 # 80007280 <etext+0x280>
  for (int i = 0; i < 512; i++)
    80000eb8:	20000c13          	li	s8,512
    80000ebc:	a029                	j	80000ec6 <vmprint_recurse+0x54>
    80000ebe:	0985                	addi	s3,s3,1 # 1001 <_entry-0x7fffefff>
    80000ec0:	0a21                	addi	s4,s4,8
    80000ec2:	07898163          	beq	s3,s8,80000f24 <vmprint_recurse+0xb2>
    pte_t pte = pagetable[i]; // store pte from page table
    80000ec6:	000a3903          	ld	s2,0(s4)
    if (!(pte & PTE_V))
    80000eca:	00197793          	andi	a5,s2,1
    80000ece:	dbe5                	beqz	a5,80000ebe <vmprint_recurse+0x4c>
    uint64 va = va_recursive | ((uint64)i << PXSHIFT(2 - depth));
    80000ed0:	01999bb3          	sll	s7,s3,s9
    80000ed4:	01abebb3          	or	s7,s7,s10
    printf(" ");
    80000ed8:	00006517          	auipc	a0,0x6
    80000edc:	3a050513          	addi	a0,a0,928 # 80007278 <etext+0x278>
    80000ee0:	4de040ef          	jal	ra,800053be <printf>
    for (int j = 0; j < depth; j++)
    80000ee4:	01505963          	blez	s5,80000ef6 <vmprint_recurse+0x84>
    80000ee8:	4481                	li	s1,0
      printf(".. ");
    80000eea:	855a                	mv	a0,s6
    80000eec:	4d2040ef          	jal	ra,800053be <printf>
    for (int j = 0; j < depth; j++)
    80000ef0:	2485                	addiw	s1,s1,1
    80000ef2:	fe9a9ce3          	bne	s5,s1,80000eea <vmprint_recurse+0x78>
    printf("..%p: pte %p pa %p\n", (void *)va, (void *)pte, (void *)PTE2PA(pte));
    80000ef6:	00a95493          	srli	s1,s2,0xa
    80000efa:	04b2                	slli	s1,s1,0xc
    80000efc:	86a6                	mv	a3,s1
    80000efe:	864a                	mv	a2,s2
    80000f00:	85de                	mv	a1,s7
    80000f02:	00006517          	auipc	a0,0x6
    80000f06:	38650513          	addi	a0,a0,902 # 80007288 <etext+0x288>
    80000f0a:	4b4040ef          	jal	ra,800053be <printf>
    if ((pte & PTE_V) && (pte & (PTE_R | PTE_W | PTE_X)) == 0)
    80000f0e:	00f97913          	andi	s2,s2,15
    80000f12:	fbb916e3          	bne	s2,s11,80000ebe <vmprint_recurse+0x4c>
      vmprint_recurse((pagetable_t)child_pa, depth + 1, va);
    80000f16:	865e                	mv	a2,s7
    80000f18:	f8843583          	ld	a1,-120(s0)
    80000f1c:	8526                	mv	a0,s1
    80000f1e:	f55ff0ef          	jal	ra,80000e72 <vmprint_recurse>
    80000f22:	bf71                	j	80000ebe <vmprint_recurse+0x4c>
    }
  }
}
    80000f24:	70e6                	ld	ra,120(sp)
    80000f26:	7446                	ld	s0,112(sp)
    80000f28:	74a6                	ld	s1,104(sp)
    80000f2a:	7906                	ld	s2,96(sp)
    80000f2c:	69e6                	ld	s3,88(sp)
    80000f2e:	6a46                	ld	s4,80(sp)
    80000f30:	6aa6                	ld	s5,72(sp)
    80000f32:	6b06                	ld	s6,64(sp)
    80000f34:	7be2                	ld	s7,56(sp)
    80000f36:	7c42                	ld	s8,48(sp)
    80000f38:	7ca2                	ld	s9,40(sp)
    80000f3a:	7d02                	ld	s10,32(sp)
    80000f3c:	6de2                	ld	s11,24(sp)
    80000f3e:	6109                	addi	sp,sp,128
    80000f40:	8082                	ret

0000000080000f42 <vmprint>:
{
    80000f42:	1101                	addi	sp,sp,-32
    80000f44:	ec06                	sd	ra,24(sp)
    80000f46:	e822                	sd	s0,16(sp)
    80000f48:	e426                	sd	s1,8(sp)
    80000f4a:	1000                	addi	s0,sp,32
    80000f4c:	84aa                	mv	s1,a0
  printf("page table %p\n", pagetable);
    80000f4e:	85aa                	mv	a1,a0
    80000f50:	00006517          	auipc	a0,0x6
    80000f54:	35050513          	addi	a0,a0,848 # 800072a0 <etext+0x2a0>
    80000f58:	466040ef          	jal	ra,800053be <printf>
  vmprint_recurse(pagetable, 0, 0); // start the recursion with depth 0
    80000f5c:	4601                	li	a2,0
    80000f5e:	4581                	li	a1,0
    80000f60:	8526                	mv	a0,s1
    80000f62:	f11ff0ef          	jal	ra,80000e72 <vmprint_recurse>
}
    80000f66:	60e2                	ld	ra,24(sp)
    80000f68:	6442                	ld	s0,16(sp)
    80000f6a:	64a2                	ld	s1,8(sp)
    80000f6c:	6105                	addi	sp,sp,32
    80000f6e:	8082                	ret

0000000080000f70 <pgpte>:

#ifdef LAB_PGTBL
pte_t *
pgpte(pagetable_t pagetable, uint64 va)
{
    80000f70:	1141                	addi	sp,sp,-16
    80000f72:	e406                	sd	ra,8(sp)
    80000f74:	e022                	sd	s0,0(sp)
    80000f76:	0800                	addi	s0,sp,16
  return walk(pagetable, va, 0);
    80000f78:	4601                	li	a2,0
    80000f7a:	db4ff0ef          	jal	ra,8000052e <walk>
}
    80000f7e:	60a2                	ld	ra,8(sp)
    80000f80:	6402                	ld	s0,0(sp)
    80000f82:	0141                	addi	sp,sp,16
    80000f84:	8082                	ret

0000000080000f86 <proc_mapstacks>:
// Allocate a page for each process's kernel stack.
// Map it high in memory, followed by an invalid
// guard page.
void
proc_mapstacks(pagetable_t kpgtbl)
{
    80000f86:	7139                	addi	sp,sp,-64
    80000f88:	fc06                	sd	ra,56(sp)
    80000f8a:	f822                	sd	s0,48(sp)
    80000f8c:	f426                	sd	s1,40(sp)
    80000f8e:	f04a                	sd	s2,32(sp)
    80000f90:	ec4e                	sd	s3,24(sp)
    80000f92:	e852                	sd	s4,16(sp)
    80000f94:	e456                	sd	s5,8(sp)
    80000f96:	e05a                	sd	s6,0(sp)
    80000f98:	0080                	addi	s0,sp,64
    80000f9a:	89aa                	mv	s3,a0
  struct proc *p;

  for(p = proc; p < &proc[NPROC]; p++) {
    80000f9c:	00007497          	auipc	s1,0x7
    80000fa0:	15448493          	addi	s1,s1,340 # 800080f0 <proc>
    char *pa = kalloc();
    if(pa == 0)
      panic("kalloc");
    uint64 va = KSTACK((int) (p - proc));
    80000fa4:	8b26                	mv	s6,s1
    80000fa6:	00006a97          	auipc	s5,0x6
    80000faa:	05aa8a93          	addi	s5,s5,90 # 80007000 <etext>
    80000fae:	04000937          	lui	s2,0x4000
    80000fb2:	197d                	addi	s2,s2,-1 # 3ffffff <_entry-0x7c000001>
    80000fb4:	0932                	slli	s2,s2,0xc
  for(p = proc; p < &proc[NPROC]; p++) {
    80000fb6:	0000da17          	auipc	s4,0xd
    80000fba:	b3aa0a13          	addi	s4,s4,-1222 # 8000daf0 <tickslock>
    char *pa = kalloc();
    80000fbe:	9a6ff0ef          	jal	ra,80000164 <kalloc>
    80000fc2:	862a                	mv	a2,a0
    if(pa == 0)
    80000fc4:	c121                	beqz	a0,80001004 <proc_mapstacks+0x7e>
    uint64 va = KSTACK((int) (p - proc));
    80000fc6:	416485b3          	sub	a1,s1,s6
    80000fca:	858d                	srai	a1,a1,0x3
    80000fcc:	000ab783          	ld	a5,0(s5)
    80000fd0:	02f585b3          	mul	a1,a1,a5
    80000fd4:	2585                	addiw	a1,a1,1
    80000fd6:	00d5959b          	slliw	a1,a1,0xd
    kvmmap(kpgtbl, va, (uint64)pa, PGSIZE, PTE_R | PTE_W);
    80000fda:	4719                	li	a4,6
    80000fdc:	6685                	lui	a3,0x1
    80000fde:	40b905b3          	sub	a1,s2,a1
    80000fe2:	854e                	mv	a0,s3
    80000fe4:	f58ff0ef          	jal	ra,8000073c <kvmmap>
  for(p = proc; p < &proc[NPROC]; p++) {
    80000fe8:	16848493          	addi	s1,s1,360
    80000fec:	fd4499e3          	bne	s1,s4,80000fbe <proc_mapstacks+0x38>
  }
}
    80000ff0:	70e2                	ld	ra,56(sp)
    80000ff2:	7442                	ld	s0,48(sp)
    80000ff4:	74a2                	ld	s1,40(sp)
    80000ff6:	7902                	ld	s2,32(sp)
    80000ff8:	69e2                	ld	s3,24(sp)
    80000ffa:	6a42                	ld	s4,16(sp)
    80000ffc:	6aa2                	ld	s5,8(sp)
    80000ffe:	6b02                	ld	s6,0(sp)
    80001000:	6121                	addi	sp,sp,64
    80001002:	8082                	ret
      panic("kalloc");
    80001004:	00006517          	auipc	a0,0x6
    80001008:	2ac50513          	addi	a0,a0,684 # 800072b0 <etext+0x2b0>
    8000100c:	666040ef          	jal	ra,80005672 <panic>

0000000080001010 <procinit>:

// initialize the proc table.
void
procinit(void)
{
    80001010:	7139                	addi	sp,sp,-64
    80001012:	fc06                	sd	ra,56(sp)
    80001014:	f822                	sd	s0,48(sp)
    80001016:	f426                	sd	s1,40(sp)
    80001018:	f04a                	sd	s2,32(sp)
    8000101a:	ec4e                	sd	s3,24(sp)
    8000101c:	e852                	sd	s4,16(sp)
    8000101e:	e456                	sd	s5,8(sp)
    80001020:	e05a                	sd	s6,0(sp)
    80001022:	0080                	addi	s0,sp,64
  struct proc *p;

  initlock(&pid_lock, "nextpid");
    80001024:	00006597          	auipc	a1,0x6
    80001028:	29458593          	addi	a1,a1,660 # 800072b8 <etext+0x2b8>
    8000102c:	00007517          	auipc	a0,0x7
    80001030:	c9450513          	addi	a0,a0,-876 # 80007cc0 <pid_lock>
    80001034:	0cf040ef          	jal	ra,80005902 <initlock>
  initlock(&wait_lock, "wait_lock");
    80001038:	00006597          	auipc	a1,0x6
    8000103c:	28858593          	addi	a1,a1,648 # 800072c0 <etext+0x2c0>
    80001040:	00007517          	auipc	a0,0x7
    80001044:	c9850513          	addi	a0,a0,-872 # 80007cd8 <wait_lock>
    80001048:	0bb040ef          	jal	ra,80005902 <initlock>
  for(p = proc; p < &proc[NPROC]; p++) {
    8000104c:	00007497          	auipc	s1,0x7
    80001050:	0a448493          	addi	s1,s1,164 # 800080f0 <proc>
      initlock(&p->lock, "proc");
    80001054:	00006b17          	auipc	s6,0x6
    80001058:	27cb0b13          	addi	s6,s6,636 # 800072d0 <etext+0x2d0>
      p->state = UNUSED;
      p->kstack = KSTACK((int) (p - proc));
    8000105c:	8aa6                	mv	s5,s1
    8000105e:	00006a17          	auipc	s4,0x6
    80001062:	fa2a0a13          	addi	s4,s4,-94 # 80007000 <etext>
    80001066:	04000937          	lui	s2,0x4000
    8000106a:	197d                	addi	s2,s2,-1 # 3ffffff <_entry-0x7c000001>
    8000106c:	0932                	slli	s2,s2,0xc
  for(p = proc; p < &proc[NPROC]; p++) {
    8000106e:	0000d997          	auipc	s3,0xd
    80001072:	a8298993          	addi	s3,s3,-1406 # 8000daf0 <tickslock>
      initlock(&p->lock, "proc");
    80001076:	85da                	mv	a1,s6
    80001078:	8526                	mv	a0,s1
    8000107a:	089040ef          	jal	ra,80005902 <initlock>
      p->state = UNUSED;
    8000107e:	0004ac23          	sw	zero,24(s1)
      p->kstack = KSTACK((int) (p - proc));
    80001082:	415487b3          	sub	a5,s1,s5
    80001086:	878d                	srai	a5,a5,0x3
    80001088:	000a3703          	ld	a4,0(s4)
    8000108c:	02e787b3          	mul	a5,a5,a4
    80001090:	2785                	addiw	a5,a5,1
    80001092:	00d7979b          	slliw	a5,a5,0xd
    80001096:	40f907b3          	sub	a5,s2,a5
    8000109a:	e0bc                	sd	a5,64(s1)
  for(p = proc; p < &proc[NPROC]; p++) {
    8000109c:	16848493          	addi	s1,s1,360
    800010a0:	fd349be3          	bne	s1,s3,80001076 <procinit+0x66>
  }
}
    800010a4:	70e2                	ld	ra,56(sp)
    800010a6:	7442                	ld	s0,48(sp)
    800010a8:	74a2                	ld	s1,40(sp)
    800010aa:	7902                	ld	s2,32(sp)
    800010ac:	69e2                	ld	s3,24(sp)
    800010ae:	6a42                	ld	s4,16(sp)
    800010b0:	6aa2                	ld	s5,8(sp)
    800010b2:	6b02                	ld	s6,0(sp)
    800010b4:	6121                	addi	sp,sp,64
    800010b6:	8082                	ret

00000000800010b8 <cpuid>:
// Must be called with interrupts disabled,
// to prevent race with process being moved
// to a different CPU.
int
cpuid()
{
    800010b8:	1141                	addi	sp,sp,-16
    800010ba:	e422                	sd	s0,8(sp)
    800010bc:	0800                	addi	s0,sp,16
  asm volatile("mv %0, tp" : "=r" (x) );
    800010be:	8512                	mv	a0,tp
  int id = r_tp();
  return id;
}
    800010c0:	2501                	sext.w	a0,a0
    800010c2:	6422                	ld	s0,8(sp)
    800010c4:	0141                	addi	sp,sp,16
    800010c6:	8082                	ret

00000000800010c8 <mycpu>:

// Return this CPU's cpu struct.
// Interrupts must be disabled.
struct cpu*
mycpu(void)
{
    800010c8:	1141                	addi	sp,sp,-16
    800010ca:	e422                	sd	s0,8(sp)
    800010cc:	0800                	addi	s0,sp,16
    800010ce:	8792                	mv	a5,tp
  int id = cpuid();
  struct cpu *c = &cpus[id];
    800010d0:	2781                	sext.w	a5,a5
    800010d2:	079e                	slli	a5,a5,0x7
  return c;
}
    800010d4:	00007517          	auipc	a0,0x7
    800010d8:	c1c50513          	addi	a0,a0,-996 # 80007cf0 <cpus>
    800010dc:	953e                	add	a0,a0,a5
    800010de:	6422                	ld	s0,8(sp)
    800010e0:	0141                	addi	sp,sp,16
    800010e2:	8082                	ret

00000000800010e4 <myproc>:

// Return the current struct proc *, or zero if none.
struct proc*
myproc(void)
{
    800010e4:	1101                	addi	sp,sp,-32
    800010e6:	ec06                	sd	ra,24(sp)
    800010e8:	e822                	sd	s0,16(sp)
    800010ea:	e426                	sd	s1,8(sp)
    800010ec:	1000                	addi	s0,sp,32
  push_off();
    800010ee:	055040ef          	jal	ra,80005942 <push_off>
    800010f2:	8792                	mv	a5,tp
  struct cpu *c = mycpu();
  struct proc *p = c->proc;
    800010f4:	2781                	sext.w	a5,a5
    800010f6:	079e                	slli	a5,a5,0x7
    800010f8:	00007717          	auipc	a4,0x7
    800010fc:	bc870713          	addi	a4,a4,-1080 # 80007cc0 <pid_lock>
    80001100:	97ba                	add	a5,a5,a4
    80001102:	7b84                	ld	s1,48(a5)
  pop_off();
    80001104:	0c3040ef          	jal	ra,800059c6 <pop_off>
  return p;
}
    80001108:	8526                	mv	a0,s1
    8000110a:	60e2                	ld	ra,24(sp)
    8000110c:	6442                	ld	s0,16(sp)
    8000110e:	64a2                	ld	s1,8(sp)
    80001110:	6105                	addi	sp,sp,32
    80001112:	8082                	ret

0000000080001114 <forkret>:

// A fork child's very first scheduling by scheduler()
// will swtch to forkret.
void
forkret(void)
{
    80001114:	1141                	addi	sp,sp,-16
    80001116:	e406                	sd	ra,8(sp)
    80001118:	e022                	sd	s0,0(sp)
    8000111a:	0800                	addi	s0,sp,16
  static int first = 1;

  // Still holding p->lock from scheduler.
  release(&myproc()->lock);
    8000111c:	fc9ff0ef          	jal	ra,800010e4 <myproc>
    80001120:	0fb040ef          	jal	ra,80005a1a <release>

  if (first) {
    80001124:	00007797          	auipc	a5,0x7
    80001128:	8dc7a783          	lw	a5,-1828(a5) # 80007a00 <first.1>
    8000112c:	e799                	bnez	a5,8000113a <forkret+0x26>
    first = 0;
    // ensure other cores see first=0.
    __sync_synchronize();
  }

  usertrapret();
    8000112e:	2bd000ef          	jal	ra,80001bea <usertrapret>
}
    80001132:	60a2                	ld	ra,8(sp)
    80001134:	6402                	ld	s0,0(sp)
    80001136:	0141                	addi	sp,sp,16
    80001138:	8082                	ret
    fsinit(ROOTDEV);
    8000113a:	4505                	li	a0,1
    8000113c:	688010ef          	jal	ra,800027c4 <fsinit>
    first = 0;
    80001140:	00007797          	auipc	a5,0x7
    80001144:	8c07a023          	sw	zero,-1856(a5) # 80007a00 <first.1>
    __sync_synchronize();
    80001148:	0ff0000f          	fence
    8000114c:	b7cd                	j	8000112e <forkret+0x1a>

000000008000114e <allocpid>:
{
    8000114e:	1101                	addi	sp,sp,-32
    80001150:	ec06                	sd	ra,24(sp)
    80001152:	e822                	sd	s0,16(sp)
    80001154:	e426                	sd	s1,8(sp)
    80001156:	e04a                	sd	s2,0(sp)
    80001158:	1000                	addi	s0,sp,32
  acquire(&pid_lock);
    8000115a:	00007917          	auipc	s2,0x7
    8000115e:	b6690913          	addi	s2,s2,-1178 # 80007cc0 <pid_lock>
    80001162:	854a                	mv	a0,s2
    80001164:	01f040ef          	jal	ra,80005982 <acquire>
  pid = nextpid;
    80001168:	00007797          	auipc	a5,0x7
    8000116c:	89c78793          	addi	a5,a5,-1892 # 80007a04 <nextpid>
    80001170:	4384                	lw	s1,0(a5)
  nextpid = nextpid + 1;
    80001172:	0014871b          	addiw	a4,s1,1
    80001176:	c398                	sw	a4,0(a5)
  release(&pid_lock);
    80001178:	854a                	mv	a0,s2
    8000117a:	0a1040ef          	jal	ra,80005a1a <release>
}
    8000117e:	8526                	mv	a0,s1
    80001180:	60e2                	ld	ra,24(sp)
    80001182:	6442                	ld	s0,16(sp)
    80001184:	64a2                	ld	s1,8(sp)
    80001186:	6902                	ld	s2,0(sp)
    80001188:	6105                	addi	sp,sp,32
    8000118a:	8082                	ret

000000008000118c <proc_pagetable>:
{
    8000118c:	1101                	addi	sp,sp,-32
    8000118e:	ec06                	sd	ra,24(sp)
    80001190:	e822                	sd	s0,16(sp)
    80001192:	e426                	sd	s1,8(sp)
    80001194:	e04a                	sd	s2,0(sp)
    80001196:	1000                	addi	s0,sp,32
    80001198:	892a                	mv	s2,a0
  pagetable = uvmcreate();
    8000119a:	fb2ff0ef          	jal	ra,8000094c <uvmcreate>
    8000119e:	84aa                	mv	s1,a0
  if(pagetable == 0)
    800011a0:	cd05                	beqz	a0,800011d8 <proc_pagetable+0x4c>
  if(mappages(pagetable, TRAMPOLINE, PGSIZE,
    800011a2:	4729                	li	a4,10
    800011a4:	00005697          	auipc	a3,0x5
    800011a8:	e5c68693          	addi	a3,a3,-420 # 80006000 <_trampoline>
    800011ac:	6605                	lui	a2,0x1
    800011ae:	040005b7          	lui	a1,0x4000
    800011b2:	15fd                	addi	a1,a1,-1 # 3ffffff <_entry-0x7c000001>
    800011b4:	05b2                	slli	a1,a1,0xc
    800011b6:	cd6ff0ef          	jal	ra,8000068c <mappages>
    800011ba:	02054663          	bltz	a0,800011e6 <proc_pagetable+0x5a>
  if(mappages(pagetable, TRAPFRAME, PGSIZE,
    800011be:	4719                	li	a4,6
    800011c0:	05893683          	ld	a3,88(s2)
    800011c4:	6605                	lui	a2,0x1
    800011c6:	020005b7          	lui	a1,0x2000
    800011ca:	15fd                	addi	a1,a1,-1 # 1ffffff <_entry-0x7e000001>
    800011cc:	05b6                	slli	a1,a1,0xd
    800011ce:	8526                	mv	a0,s1
    800011d0:	cbcff0ef          	jal	ra,8000068c <mappages>
    800011d4:	00054f63          	bltz	a0,800011f2 <proc_pagetable+0x66>
}
    800011d8:	8526                	mv	a0,s1
    800011da:	60e2                	ld	ra,24(sp)
    800011dc:	6442                	ld	s0,16(sp)
    800011de:	64a2                	ld	s1,8(sp)
    800011e0:	6902                	ld	s2,0(sp)
    800011e2:	6105                	addi	sp,sp,32
    800011e4:	8082                	ret
    uvmfree(pagetable, 0);
    800011e6:	4581                	li	a1,0
    800011e8:	8526                	mv	a0,s1
    800011ea:	991ff0ef          	jal	ra,80000b7a <uvmfree>
    return 0;
    800011ee:	4481                	li	s1,0
    800011f0:	b7e5                	j	800011d8 <proc_pagetable+0x4c>
    uvmunmap(pagetable, TRAMPOLINE, 1, 0);
    800011f2:	4681                	li	a3,0
    800011f4:	4605                	li	a2,1
    800011f6:	040005b7          	lui	a1,0x4000
    800011fa:	15fd                	addi	a1,a1,-1 # 3ffffff <_entry-0x7c000001>
    800011fc:	05b2                	slli	a1,a1,0xc
    800011fe:	8526                	mv	a0,s1
    80001200:	e90ff0ef          	jal	ra,80000890 <uvmunmap>
    uvmfree(pagetable, 0);
    80001204:	4581                	li	a1,0
    80001206:	8526                	mv	a0,s1
    80001208:	973ff0ef          	jal	ra,80000b7a <uvmfree>
    return 0;
    8000120c:	4481                	li	s1,0
    8000120e:	b7e9                	j	800011d8 <proc_pagetable+0x4c>

0000000080001210 <proc_freepagetable>:
{
    80001210:	1101                	addi	sp,sp,-32
    80001212:	ec06                	sd	ra,24(sp)
    80001214:	e822                	sd	s0,16(sp)
    80001216:	e426                	sd	s1,8(sp)
    80001218:	e04a                	sd	s2,0(sp)
    8000121a:	1000                	addi	s0,sp,32
    8000121c:	84aa                	mv	s1,a0
    8000121e:	892e                	mv	s2,a1
  uvmunmap(pagetable, TRAMPOLINE, 1, 0);
    80001220:	4681                	li	a3,0
    80001222:	4605                	li	a2,1
    80001224:	040005b7          	lui	a1,0x4000
    80001228:	15fd                	addi	a1,a1,-1 # 3ffffff <_entry-0x7c000001>
    8000122a:	05b2                	slli	a1,a1,0xc
    8000122c:	e64ff0ef          	jal	ra,80000890 <uvmunmap>
  uvmunmap(pagetable, TRAPFRAME, 1, 0);
    80001230:	4681                	li	a3,0
    80001232:	4605                	li	a2,1
    80001234:	020005b7          	lui	a1,0x2000
    80001238:	15fd                	addi	a1,a1,-1 # 1ffffff <_entry-0x7e000001>
    8000123a:	05b6                	slli	a1,a1,0xd
    8000123c:	8526                	mv	a0,s1
    8000123e:	e52ff0ef          	jal	ra,80000890 <uvmunmap>
  uvmfree(pagetable, sz);
    80001242:	85ca                	mv	a1,s2
    80001244:	8526                	mv	a0,s1
    80001246:	935ff0ef          	jal	ra,80000b7a <uvmfree>
}
    8000124a:	60e2                	ld	ra,24(sp)
    8000124c:	6442                	ld	s0,16(sp)
    8000124e:	64a2                	ld	s1,8(sp)
    80001250:	6902                	ld	s2,0(sp)
    80001252:	6105                	addi	sp,sp,32
    80001254:	8082                	ret

0000000080001256 <freeproc>:
{
    80001256:	1101                	addi	sp,sp,-32
    80001258:	ec06                	sd	ra,24(sp)
    8000125a:	e822                	sd	s0,16(sp)
    8000125c:	e426                	sd	s1,8(sp)
    8000125e:	1000                	addi	s0,sp,32
    80001260:	84aa                	mv	s1,a0
  if(p->trapframe)
    80001262:	6d28                	ld	a0,88(a0)
    80001264:	c119                	beqz	a0,8000126a <freeproc+0x14>
    kfree((void*)p->trapframe);
    80001266:	e0bfe0ef          	jal	ra,80000070 <kfree>
  p->trapframe = 0;
    8000126a:	0404bc23          	sd	zero,88(s1)
  if(p->pagetable)
    8000126e:	68a8                	ld	a0,80(s1)
    80001270:	c501                	beqz	a0,80001278 <freeproc+0x22>
    proc_freepagetable(p->pagetable, p->sz);
    80001272:	64ac                	ld	a1,72(s1)
    80001274:	f9dff0ef          	jal	ra,80001210 <proc_freepagetable>
  p->pagetable = 0;
    80001278:	0404b823          	sd	zero,80(s1)
  p->sz = 0;
    8000127c:	0404b423          	sd	zero,72(s1)
  p->pid = 0;
    80001280:	0204a823          	sw	zero,48(s1)
  p->parent = 0;
    80001284:	0204bc23          	sd	zero,56(s1)
  p->name[0] = 0;
    80001288:	14048c23          	sb	zero,344(s1)
  p->chan = 0;
    8000128c:	0204b023          	sd	zero,32(s1)
  p->killed = 0;
    80001290:	0204a423          	sw	zero,40(s1)
  p->xstate = 0;
    80001294:	0204a623          	sw	zero,44(s1)
  p->state = UNUSED;
    80001298:	0004ac23          	sw	zero,24(s1)
}
    8000129c:	60e2                	ld	ra,24(sp)
    8000129e:	6442                	ld	s0,16(sp)
    800012a0:	64a2                	ld	s1,8(sp)
    800012a2:	6105                	addi	sp,sp,32
    800012a4:	8082                	ret

00000000800012a6 <allocproc>:
{
    800012a6:	1101                	addi	sp,sp,-32
    800012a8:	ec06                	sd	ra,24(sp)
    800012aa:	e822                	sd	s0,16(sp)
    800012ac:	e426                	sd	s1,8(sp)
    800012ae:	e04a                	sd	s2,0(sp)
    800012b0:	1000                	addi	s0,sp,32
  for(p = proc; p < &proc[NPROC]; p++) {
    800012b2:	00007497          	auipc	s1,0x7
    800012b6:	e3e48493          	addi	s1,s1,-450 # 800080f0 <proc>
    800012ba:	0000d917          	auipc	s2,0xd
    800012be:	83690913          	addi	s2,s2,-1994 # 8000daf0 <tickslock>
    acquire(&p->lock);
    800012c2:	8526                	mv	a0,s1
    800012c4:	6be040ef          	jal	ra,80005982 <acquire>
    if(p->state == UNUSED) {
    800012c8:	4c9c                	lw	a5,24(s1)
    800012ca:	cb91                	beqz	a5,800012de <allocproc+0x38>
      release(&p->lock);
    800012cc:	8526                	mv	a0,s1
    800012ce:	74c040ef          	jal	ra,80005a1a <release>
  for(p = proc; p < &proc[NPROC]; p++) {
    800012d2:	16848493          	addi	s1,s1,360
    800012d6:	ff2496e3          	bne	s1,s2,800012c2 <allocproc+0x1c>
  return 0;
    800012da:	4481                	li	s1,0
    800012dc:	a089                	j	8000131e <allocproc+0x78>
  p->pid = allocpid();
    800012de:	e71ff0ef          	jal	ra,8000114e <allocpid>
    800012e2:	d888                	sw	a0,48(s1)
  p->state = USED;
    800012e4:	4785                	li	a5,1
    800012e6:	cc9c                	sw	a5,24(s1)
  if((p->trapframe = (struct trapframe *)kalloc()) == 0){
    800012e8:	e7dfe0ef          	jal	ra,80000164 <kalloc>
    800012ec:	892a                	mv	s2,a0
    800012ee:	eca8                	sd	a0,88(s1)
    800012f0:	cd15                	beqz	a0,8000132c <allocproc+0x86>
  p->pagetable = proc_pagetable(p);
    800012f2:	8526                	mv	a0,s1
    800012f4:	e99ff0ef          	jal	ra,8000118c <proc_pagetable>
    800012f8:	892a                	mv	s2,a0
    800012fa:	e8a8                	sd	a0,80(s1)
  if(p->pagetable == 0){
    800012fc:	c121                	beqz	a0,8000133c <allocproc+0x96>
  memset(&p->context, 0, sizeof(p->context));
    800012fe:	07000613          	li	a2,112
    80001302:	4581                	li	a1,0
    80001304:	06048513          	addi	a0,s1,96
    80001308:	fabfe0ef          	jal	ra,800002b2 <memset>
  p->context.ra = (uint64)forkret;
    8000130c:	00000797          	auipc	a5,0x0
    80001310:	e0878793          	addi	a5,a5,-504 # 80001114 <forkret>
    80001314:	f0bc                	sd	a5,96(s1)
  p->context.sp = p->kstack + PGSIZE;
    80001316:	60bc                	ld	a5,64(s1)
    80001318:	6705                	lui	a4,0x1
    8000131a:	97ba                	add	a5,a5,a4
    8000131c:	f4bc                	sd	a5,104(s1)
}
    8000131e:	8526                	mv	a0,s1
    80001320:	60e2                	ld	ra,24(sp)
    80001322:	6442                	ld	s0,16(sp)
    80001324:	64a2                	ld	s1,8(sp)
    80001326:	6902                	ld	s2,0(sp)
    80001328:	6105                	addi	sp,sp,32
    8000132a:	8082                	ret
    freeproc(p);
    8000132c:	8526                	mv	a0,s1
    8000132e:	f29ff0ef          	jal	ra,80001256 <freeproc>
    release(&p->lock);
    80001332:	8526                	mv	a0,s1
    80001334:	6e6040ef          	jal	ra,80005a1a <release>
    return 0;
    80001338:	84ca                	mv	s1,s2
    8000133a:	b7d5                	j	8000131e <allocproc+0x78>
    freeproc(p);
    8000133c:	8526                	mv	a0,s1
    8000133e:	f19ff0ef          	jal	ra,80001256 <freeproc>
    release(&p->lock);
    80001342:	8526                	mv	a0,s1
    80001344:	6d6040ef          	jal	ra,80005a1a <release>
    return 0;
    80001348:	84ca                	mv	s1,s2
    8000134a:	bfd1                	j	8000131e <allocproc+0x78>

000000008000134c <userinit>:
{
    8000134c:	1101                	addi	sp,sp,-32
    8000134e:	ec06                	sd	ra,24(sp)
    80001350:	e822                	sd	s0,16(sp)
    80001352:	e426                	sd	s1,8(sp)
    80001354:	1000                	addi	s0,sp,32
  p = allocproc();
    80001356:	f51ff0ef          	jal	ra,800012a6 <allocproc>
    8000135a:	84aa                	mv	s1,a0
  initproc = p;
    8000135c:	00006797          	auipc	a5,0x6
    80001360:	72a7b223          	sd	a0,1828(a5) # 80007a80 <initproc>
  uvmfirst(p->pagetable, initcode, sizeof(initcode));
    80001364:	03400613          	li	a2,52
    80001368:	00006597          	auipc	a1,0x6
    8000136c:	6a858593          	addi	a1,a1,1704 # 80007a10 <initcode>
    80001370:	6928                	ld	a0,80(a0)
    80001372:	e00ff0ef          	jal	ra,80000972 <uvmfirst>
  p->sz = PGSIZE;
    80001376:	6785                	lui	a5,0x1
    80001378:	e4bc                	sd	a5,72(s1)
  p->trapframe->epc = 0;      // user program counter
    8000137a:	6cb8                	ld	a4,88(s1)
    8000137c:	00073c23          	sd	zero,24(a4) # 1018 <_entry-0x7fffefe8>
  p->trapframe->sp = PGSIZE;  // user stack pointer
    80001380:	6cb8                	ld	a4,88(s1)
    80001382:	fb1c                	sd	a5,48(a4)
  safestrcpy(p->name, "initcode", sizeof(p->name));
    80001384:	4641                	li	a2,16
    80001386:	00006597          	auipc	a1,0x6
    8000138a:	f5258593          	addi	a1,a1,-174 # 800072d8 <etext+0x2d8>
    8000138e:	15848513          	addi	a0,s1,344
    80001392:	866ff0ef          	jal	ra,800003f8 <safestrcpy>
  p->cwd = namei("/");
    80001396:	00006517          	auipc	a0,0x6
    8000139a:	f5250513          	addi	a0,a0,-174 # 800072e8 <etext+0x2e8>
    8000139e:	50d010ef          	jal	ra,800030aa <namei>
    800013a2:	14a4b823          	sd	a0,336(s1)
  p->state = RUNNABLE;
    800013a6:	478d                	li	a5,3
    800013a8:	cc9c                	sw	a5,24(s1)
  release(&p->lock);
    800013aa:	8526                	mv	a0,s1
    800013ac:	66e040ef          	jal	ra,80005a1a <release>
}
    800013b0:	60e2                	ld	ra,24(sp)
    800013b2:	6442                	ld	s0,16(sp)
    800013b4:	64a2                	ld	s1,8(sp)
    800013b6:	6105                	addi	sp,sp,32
    800013b8:	8082                	ret

00000000800013ba <growproc>:
{
    800013ba:	1101                	addi	sp,sp,-32
    800013bc:	ec06                	sd	ra,24(sp)
    800013be:	e822                	sd	s0,16(sp)
    800013c0:	e426                	sd	s1,8(sp)
    800013c2:	e04a                	sd	s2,0(sp)
    800013c4:	1000                	addi	s0,sp,32
    800013c6:	892a                	mv	s2,a0
  struct proc *p = myproc();
    800013c8:	d1dff0ef          	jal	ra,800010e4 <myproc>
    800013cc:	84aa                	mv	s1,a0
  sz = p->sz;
    800013ce:	652c                	ld	a1,72(a0)
  if(n > 0){
    800013d0:	01204c63          	bgtz	s2,800013e8 <growproc+0x2e>
  } else if(n < 0){
    800013d4:	02094463          	bltz	s2,800013fc <growproc+0x42>
  p->sz = sz;
    800013d8:	e4ac                	sd	a1,72(s1)
  return 0;
    800013da:	4501                	li	a0,0
}
    800013dc:	60e2                	ld	ra,24(sp)
    800013de:	6442                	ld	s0,16(sp)
    800013e0:	64a2                	ld	s1,8(sp)
    800013e2:	6902                	ld	s2,0(sp)
    800013e4:	6105                	addi	sp,sp,32
    800013e6:	8082                	ret
    if((sz = uvmalloc(p->pagetable, sz, sz + n, PTE_W)) == 0) {
    800013e8:	4691                	li	a3,4
    800013ea:	00b90633          	add	a2,s2,a1
    800013ee:	6928                	ld	a0,80(a0)
    800013f0:	e24ff0ef          	jal	ra,80000a14 <uvmalloc>
    800013f4:	85aa                	mv	a1,a0
    800013f6:	f16d                	bnez	a0,800013d8 <growproc+0x1e>
      return -1;
    800013f8:	557d                	li	a0,-1
    800013fa:	b7cd                	j	800013dc <growproc+0x22>
    sz = uvmdealloc(p->pagetable, sz, sz + n);
    800013fc:	00b90633          	add	a2,s2,a1
    80001400:	6928                	ld	a0,80(a0)
    80001402:	dceff0ef          	jal	ra,800009d0 <uvmdealloc>
    80001406:	85aa                	mv	a1,a0
    80001408:	bfc1                	j	800013d8 <growproc+0x1e>

000000008000140a <fork>:
{
    8000140a:	7139                	addi	sp,sp,-64
    8000140c:	fc06                	sd	ra,56(sp)
    8000140e:	f822                	sd	s0,48(sp)
    80001410:	f426                	sd	s1,40(sp)
    80001412:	f04a                	sd	s2,32(sp)
    80001414:	ec4e                	sd	s3,24(sp)
    80001416:	e852                	sd	s4,16(sp)
    80001418:	e456                	sd	s5,8(sp)
    8000141a:	0080                	addi	s0,sp,64
  struct proc *p = myproc();
    8000141c:	cc9ff0ef          	jal	ra,800010e4 <myproc>
    80001420:	8aaa                	mv	s5,a0
  if((np = allocproc()) == 0){
    80001422:	e85ff0ef          	jal	ra,800012a6 <allocproc>
    80001426:	0e050663          	beqz	a0,80001512 <fork+0x108>
    8000142a:	8a2a                	mv	s4,a0
  if(uvmcopy(p->pagetable, np->pagetable, p->sz) < 0){
    8000142c:	048ab603          	ld	a2,72(s5)
    80001430:	692c                	ld	a1,80(a0)
    80001432:	050ab503          	ld	a0,80(s5)
    80001436:	f76ff0ef          	jal	ra,80000bac <uvmcopy>
    8000143a:	04054863          	bltz	a0,8000148a <fork+0x80>
  np->sz = p->sz;
    8000143e:	048ab783          	ld	a5,72(s5)
    80001442:	04fa3423          	sd	a5,72(s4)
  *(np->trapframe) = *(p->trapframe);
    80001446:	058ab683          	ld	a3,88(s5)
    8000144a:	87b6                	mv	a5,a3
    8000144c:	058a3703          	ld	a4,88(s4)
    80001450:	12068693          	addi	a3,a3,288
    80001454:	0007b803          	ld	a6,0(a5) # 1000 <_entry-0x7ffff000>
    80001458:	6788                	ld	a0,8(a5)
    8000145a:	6b8c                	ld	a1,16(a5)
    8000145c:	6f90                	ld	a2,24(a5)
    8000145e:	01073023          	sd	a6,0(a4)
    80001462:	e708                	sd	a0,8(a4)
    80001464:	eb0c                	sd	a1,16(a4)
    80001466:	ef10                	sd	a2,24(a4)
    80001468:	02078793          	addi	a5,a5,32
    8000146c:	02070713          	addi	a4,a4,32
    80001470:	fed792e3          	bne	a5,a3,80001454 <fork+0x4a>
  np->trapframe->a0 = 0;
    80001474:	058a3783          	ld	a5,88(s4)
    80001478:	0607b823          	sd	zero,112(a5)
  for(i = 0; i < NOFILE; i++)
    8000147c:	0d0a8493          	addi	s1,s5,208
    80001480:	0d0a0913          	addi	s2,s4,208
    80001484:	150a8993          	addi	s3,s5,336
    80001488:	a829                	j	800014a2 <fork+0x98>
    freeproc(np);
    8000148a:	8552                	mv	a0,s4
    8000148c:	dcbff0ef          	jal	ra,80001256 <freeproc>
    release(&np->lock);
    80001490:	8552                	mv	a0,s4
    80001492:	588040ef          	jal	ra,80005a1a <release>
    return -1;
    80001496:	597d                	li	s2,-1
    80001498:	a09d                	j	800014fe <fork+0xf4>
  for(i = 0; i < NOFILE; i++)
    8000149a:	04a1                	addi	s1,s1,8
    8000149c:	0921                	addi	s2,s2,8
    8000149e:	01348963          	beq	s1,s3,800014b0 <fork+0xa6>
    if(p->ofile[i])
    800014a2:	6088                	ld	a0,0(s1)
    800014a4:	d97d                	beqz	a0,8000149a <fork+0x90>
      np->ofile[i] = filedup(p->ofile[i]);
    800014a6:	1b2020ef          	jal	ra,80003658 <filedup>
    800014aa:	00a93023          	sd	a0,0(s2)
    800014ae:	b7f5                	j	8000149a <fork+0x90>
  np->cwd = idup(p->cwd);
    800014b0:	150ab503          	ld	a0,336(s5)
    800014b4:	508010ef          	jal	ra,800029bc <idup>
    800014b8:	14aa3823          	sd	a0,336(s4)
  safestrcpy(np->name, p->name, sizeof(p->name));
    800014bc:	4641                	li	a2,16
    800014be:	158a8593          	addi	a1,s5,344
    800014c2:	158a0513          	addi	a0,s4,344
    800014c6:	f33fe0ef          	jal	ra,800003f8 <safestrcpy>
  pid = np->pid;
    800014ca:	030a2903          	lw	s2,48(s4)
  release(&np->lock);
    800014ce:	8552                	mv	a0,s4
    800014d0:	54a040ef          	jal	ra,80005a1a <release>
  acquire(&wait_lock);
    800014d4:	00007497          	auipc	s1,0x7
    800014d8:	80448493          	addi	s1,s1,-2044 # 80007cd8 <wait_lock>
    800014dc:	8526                	mv	a0,s1
    800014de:	4a4040ef          	jal	ra,80005982 <acquire>
  np->parent = p;
    800014e2:	035a3c23          	sd	s5,56(s4)
  release(&wait_lock);
    800014e6:	8526                	mv	a0,s1
    800014e8:	532040ef          	jal	ra,80005a1a <release>
  acquire(&np->lock);
    800014ec:	8552                	mv	a0,s4
    800014ee:	494040ef          	jal	ra,80005982 <acquire>
  np->state = RUNNABLE;
    800014f2:	478d                	li	a5,3
    800014f4:	00fa2c23          	sw	a5,24(s4)
  release(&np->lock);
    800014f8:	8552                	mv	a0,s4
    800014fa:	520040ef          	jal	ra,80005a1a <release>
}
    800014fe:	854a                	mv	a0,s2
    80001500:	70e2                	ld	ra,56(sp)
    80001502:	7442                	ld	s0,48(sp)
    80001504:	74a2                	ld	s1,40(sp)
    80001506:	7902                	ld	s2,32(sp)
    80001508:	69e2                	ld	s3,24(sp)
    8000150a:	6a42                	ld	s4,16(sp)
    8000150c:	6aa2                	ld	s5,8(sp)
    8000150e:	6121                	addi	sp,sp,64
    80001510:	8082                	ret
    return -1;
    80001512:	597d                	li	s2,-1
    80001514:	b7ed                	j	800014fe <fork+0xf4>

0000000080001516 <scheduler>:
{
    80001516:	715d                	addi	sp,sp,-80
    80001518:	e486                	sd	ra,72(sp)
    8000151a:	e0a2                	sd	s0,64(sp)
    8000151c:	fc26                	sd	s1,56(sp)
    8000151e:	f84a                	sd	s2,48(sp)
    80001520:	f44e                	sd	s3,40(sp)
    80001522:	f052                	sd	s4,32(sp)
    80001524:	ec56                	sd	s5,24(sp)
    80001526:	e85a                	sd	s6,16(sp)
    80001528:	e45e                	sd	s7,8(sp)
    8000152a:	e062                	sd	s8,0(sp)
    8000152c:	0880                	addi	s0,sp,80
    8000152e:	8792                	mv	a5,tp
  int id = r_tp();
    80001530:	2781                	sext.w	a5,a5
  c->proc = 0;
    80001532:	00779b13          	slli	s6,a5,0x7
    80001536:	00006717          	auipc	a4,0x6
    8000153a:	78a70713          	addi	a4,a4,1930 # 80007cc0 <pid_lock>
    8000153e:	975a                	add	a4,a4,s6
    80001540:	02073823          	sd	zero,48(a4)
        swtch(&c->context, &p->context);
    80001544:	00006717          	auipc	a4,0x6
    80001548:	7b470713          	addi	a4,a4,1972 # 80007cf8 <cpus+0x8>
    8000154c:	9b3a                	add	s6,s6,a4
        p->state = RUNNING;
    8000154e:	4c11                	li	s8,4
        c->proc = p;
    80001550:	079e                	slli	a5,a5,0x7
    80001552:	00006a17          	auipc	s4,0x6
    80001556:	76ea0a13          	addi	s4,s4,1902 # 80007cc0 <pid_lock>
    8000155a:	9a3e                	add	s4,s4,a5
        found = 1;
    8000155c:	4b85                	li	s7,1
    for(p = proc; p < &proc[NPROC]; p++) {
    8000155e:	0000c997          	auipc	s3,0xc
    80001562:	59298993          	addi	s3,s3,1426 # 8000daf0 <tickslock>
    80001566:	a0a9                	j	800015b0 <scheduler+0x9a>
      release(&p->lock);
    80001568:	8526                	mv	a0,s1
    8000156a:	4b0040ef          	jal	ra,80005a1a <release>
    for(p = proc; p < &proc[NPROC]; p++) {
    8000156e:	16848493          	addi	s1,s1,360
    80001572:	03348563          	beq	s1,s3,8000159c <scheduler+0x86>
      acquire(&p->lock);
    80001576:	8526                	mv	a0,s1
    80001578:	40a040ef          	jal	ra,80005982 <acquire>
      if(p->state == RUNNABLE) {
    8000157c:	4c9c                	lw	a5,24(s1)
    8000157e:	ff2795e3          	bne	a5,s2,80001568 <scheduler+0x52>
        p->state = RUNNING;
    80001582:	0184ac23          	sw	s8,24(s1)
        c->proc = p;
    80001586:	029a3823          	sd	s1,48(s4)
        swtch(&c->context, &p->context);
    8000158a:	06048593          	addi	a1,s1,96
    8000158e:	855a                	mv	a0,s6
    80001590:	5b4000ef          	jal	ra,80001b44 <swtch>
        c->proc = 0;
    80001594:	020a3823          	sd	zero,48(s4)
        found = 1;
    80001598:	8ade                	mv	s5,s7
    8000159a:	b7f9                	j	80001568 <scheduler+0x52>
    if(found == 0) {
    8000159c:	000a9a63          	bnez	s5,800015b0 <scheduler+0x9a>
  asm volatile("csrr %0, sstatus" : "=r" (x) );
    800015a0:	100027f3          	csrr	a5,sstatus
  w_sstatus(r_sstatus() | SSTATUS_SIE);
    800015a4:	0027e793          	ori	a5,a5,2
  asm volatile("csrw sstatus, %0" : : "r" (x));
    800015a8:	10079073          	csrw	sstatus,a5
      asm volatile("wfi");
    800015ac:	10500073          	wfi
  asm volatile("csrr %0, sstatus" : "=r" (x) );
    800015b0:	100027f3          	csrr	a5,sstatus
  w_sstatus(r_sstatus() | SSTATUS_SIE);
    800015b4:	0027e793          	ori	a5,a5,2
  asm volatile("csrw sstatus, %0" : : "r" (x));
    800015b8:	10079073          	csrw	sstatus,a5
    int found = 0;
    800015bc:	4a81                	li	s5,0
    for(p = proc; p < &proc[NPROC]; p++) {
    800015be:	00007497          	auipc	s1,0x7
    800015c2:	b3248493          	addi	s1,s1,-1230 # 800080f0 <proc>
      if(p->state == RUNNABLE) {
    800015c6:	490d                	li	s2,3
    800015c8:	b77d                	j	80001576 <scheduler+0x60>

00000000800015ca <sched>:
{
    800015ca:	7179                	addi	sp,sp,-48
    800015cc:	f406                	sd	ra,40(sp)
    800015ce:	f022                	sd	s0,32(sp)
    800015d0:	ec26                	sd	s1,24(sp)
    800015d2:	e84a                	sd	s2,16(sp)
    800015d4:	e44e                	sd	s3,8(sp)
    800015d6:	1800                	addi	s0,sp,48
  struct proc *p = myproc();
    800015d8:	b0dff0ef          	jal	ra,800010e4 <myproc>
    800015dc:	84aa                	mv	s1,a0
  if(!holding(&p->lock))
    800015de:	33a040ef          	jal	ra,80005918 <holding>
    800015e2:	c92d                	beqz	a0,80001654 <sched+0x8a>
  asm volatile("mv %0, tp" : "=r" (x) );
    800015e4:	8792                	mv	a5,tp
  if(mycpu()->noff != 1)
    800015e6:	2781                	sext.w	a5,a5
    800015e8:	079e                	slli	a5,a5,0x7
    800015ea:	00006717          	auipc	a4,0x6
    800015ee:	6d670713          	addi	a4,a4,1750 # 80007cc0 <pid_lock>
    800015f2:	97ba                	add	a5,a5,a4
    800015f4:	0a87a703          	lw	a4,168(a5)
    800015f8:	4785                	li	a5,1
    800015fa:	06f71363          	bne	a4,a5,80001660 <sched+0x96>
  if(p->state == RUNNING)
    800015fe:	4c98                	lw	a4,24(s1)
    80001600:	4791                	li	a5,4
    80001602:	06f70563          	beq	a4,a5,8000166c <sched+0xa2>
  asm volatile("csrr %0, sstatus" : "=r" (x) );
    80001606:	100027f3          	csrr	a5,sstatus
  return (x & SSTATUS_SIE) != 0;
    8000160a:	8b89                	andi	a5,a5,2
  if(intr_get())
    8000160c:	e7b5                	bnez	a5,80001678 <sched+0xae>
  asm volatile("mv %0, tp" : "=r" (x) );
    8000160e:	8792                	mv	a5,tp
  intena = mycpu()->intena;
    80001610:	00006917          	auipc	s2,0x6
    80001614:	6b090913          	addi	s2,s2,1712 # 80007cc0 <pid_lock>
    80001618:	2781                	sext.w	a5,a5
    8000161a:	079e                	slli	a5,a5,0x7
    8000161c:	97ca                	add	a5,a5,s2
    8000161e:	0ac7a983          	lw	s3,172(a5)
    80001622:	8792                	mv	a5,tp
  swtch(&p->context, &mycpu()->context);
    80001624:	2781                	sext.w	a5,a5
    80001626:	079e                	slli	a5,a5,0x7
    80001628:	00006597          	auipc	a1,0x6
    8000162c:	6d058593          	addi	a1,a1,1744 # 80007cf8 <cpus+0x8>
    80001630:	95be                	add	a1,a1,a5
    80001632:	06048513          	addi	a0,s1,96
    80001636:	50e000ef          	jal	ra,80001b44 <swtch>
    8000163a:	8792                	mv	a5,tp
  mycpu()->intena = intena;
    8000163c:	2781                	sext.w	a5,a5
    8000163e:	079e                	slli	a5,a5,0x7
    80001640:	993e                	add	s2,s2,a5
    80001642:	0b392623          	sw	s3,172(s2)
}
    80001646:	70a2                	ld	ra,40(sp)
    80001648:	7402                	ld	s0,32(sp)
    8000164a:	64e2                	ld	s1,24(sp)
    8000164c:	6942                	ld	s2,16(sp)
    8000164e:	69a2                	ld	s3,8(sp)
    80001650:	6145                	addi	sp,sp,48
    80001652:	8082                	ret
    panic("sched p->lock");
    80001654:	00006517          	auipc	a0,0x6
    80001658:	c9c50513          	addi	a0,a0,-868 # 800072f0 <etext+0x2f0>
    8000165c:	016040ef          	jal	ra,80005672 <panic>
    panic("sched locks");
    80001660:	00006517          	auipc	a0,0x6
    80001664:	ca050513          	addi	a0,a0,-864 # 80007300 <etext+0x300>
    80001668:	00a040ef          	jal	ra,80005672 <panic>
    panic("sched running");
    8000166c:	00006517          	auipc	a0,0x6
    80001670:	ca450513          	addi	a0,a0,-860 # 80007310 <etext+0x310>
    80001674:	7ff030ef          	jal	ra,80005672 <panic>
    panic("sched interruptible");
    80001678:	00006517          	auipc	a0,0x6
    8000167c:	ca850513          	addi	a0,a0,-856 # 80007320 <etext+0x320>
    80001680:	7f3030ef          	jal	ra,80005672 <panic>

0000000080001684 <yield>:
{
    80001684:	1101                	addi	sp,sp,-32
    80001686:	ec06                	sd	ra,24(sp)
    80001688:	e822                	sd	s0,16(sp)
    8000168a:	e426                	sd	s1,8(sp)
    8000168c:	1000                	addi	s0,sp,32
  struct proc *p = myproc();
    8000168e:	a57ff0ef          	jal	ra,800010e4 <myproc>
    80001692:	84aa                	mv	s1,a0
  acquire(&p->lock);
    80001694:	2ee040ef          	jal	ra,80005982 <acquire>
  p->state = RUNNABLE;
    80001698:	478d                	li	a5,3
    8000169a:	cc9c                	sw	a5,24(s1)
  sched();
    8000169c:	f2fff0ef          	jal	ra,800015ca <sched>
  release(&p->lock);
    800016a0:	8526                	mv	a0,s1
    800016a2:	378040ef          	jal	ra,80005a1a <release>
}
    800016a6:	60e2                	ld	ra,24(sp)
    800016a8:	6442                	ld	s0,16(sp)
    800016aa:	64a2                	ld	s1,8(sp)
    800016ac:	6105                	addi	sp,sp,32
    800016ae:	8082                	ret

00000000800016b0 <sleep>:

// Atomically release lock and sleep on chan.
// Reacquires lock when awakened.
void
sleep(void *chan, struct spinlock *lk)
{
    800016b0:	7179                	addi	sp,sp,-48
    800016b2:	f406                	sd	ra,40(sp)
    800016b4:	f022                	sd	s0,32(sp)
    800016b6:	ec26                	sd	s1,24(sp)
    800016b8:	e84a                	sd	s2,16(sp)
    800016ba:	e44e                	sd	s3,8(sp)
    800016bc:	1800                	addi	s0,sp,48
    800016be:	89aa                	mv	s3,a0
    800016c0:	892e                	mv	s2,a1
  struct proc *p = myproc();
    800016c2:	a23ff0ef          	jal	ra,800010e4 <myproc>
    800016c6:	84aa                	mv	s1,a0
  // Once we hold p->lock, we can be
  // guaranteed that we won't miss any wakeup
  // (wakeup locks p->lock),
  // so it's okay to release lk.

  acquire(&p->lock);  //DOC: sleeplock1
    800016c8:	2ba040ef          	jal	ra,80005982 <acquire>
  release(lk);
    800016cc:	854a                	mv	a0,s2
    800016ce:	34c040ef          	jal	ra,80005a1a <release>

  // Go to sleep.
  p->chan = chan;
    800016d2:	0334b023          	sd	s3,32(s1)
  p->state = SLEEPING;
    800016d6:	4789                	li	a5,2
    800016d8:	cc9c                	sw	a5,24(s1)

  sched();
    800016da:	ef1ff0ef          	jal	ra,800015ca <sched>

  // Tidy up.
  p->chan = 0;
    800016de:	0204b023          	sd	zero,32(s1)

  // Reacquire original lock.
  release(&p->lock);
    800016e2:	8526                	mv	a0,s1
    800016e4:	336040ef          	jal	ra,80005a1a <release>
  acquire(lk);
    800016e8:	854a                	mv	a0,s2
    800016ea:	298040ef          	jal	ra,80005982 <acquire>
}
    800016ee:	70a2                	ld	ra,40(sp)
    800016f0:	7402                	ld	s0,32(sp)
    800016f2:	64e2                	ld	s1,24(sp)
    800016f4:	6942                	ld	s2,16(sp)
    800016f6:	69a2                	ld	s3,8(sp)
    800016f8:	6145                	addi	sp,sp,48
    800016fa:	8082                	ret

00000000800016fc <wakeup>:

// Wake up all processes sleeping on chan.
// Must be called without any p->lock.
void
wakeup(void *chan)
{
    800016fc:	7139                	addi	sp,sp,-64
    800016fe:	fc06                	sd	ra,56(sp)
    80001700:	f822                	sd	s0,48(sp)
    80001702:	f426                	sd	s1,40(sp)
    80001704:	f04a                	sd	s2,32(sp)
    80001706:	ec4e                	sd	s3,24(sp)
    80001708:	e852                	sd	s4,16(sp)
    8000170a:	e456                	sd	s5,8(sp)
    8000170c:	0080                	addi	s0,sp,64
    8000170e:	8a2a                	mv	s4,a0
  struct proc *p;

  for(p = proc; p < &proc[NPROC]; p++) {
    80001710:	00007497          	auipc	s1,0x7
    80001714:	9e048493          	addi	s1,s1,-1568 # 800080f0 <proc>
    if(p != myproc()){
      acquire(&p->lock);
      if(p->state == SLEEPING && p->chan == chan) {
    80001718:	4989                	li	s3,2
        p->state = RUNNABLE;
    8000171a:	4a8d                	li	s5,3
  for(p = proc; p < &proc[NPROC]; p++) {
    8000171c:	0000c917          	auipc	s2,0xc
    80001720:	3d490913          	addi	s2,s2,980 # 8000daf0 <tickslock>
    80001724:	a801                	j	80001734 <wakeup+0x38>
      }
      release(&p->lock);
    80001726:	8526                	mv	a0,s1
    80001728:	2f2040ef          	jal	ra,80005a1a <release>
  for(p = proc; p < &proc[NPROC]; p++) {
    8000172c:	16848493          	addi	s1,s1,360
    80001730:	03248263          	beq	s1,s2,80001754 <wakeup+0x58>
    if(p != myproc()){
    80001734:	9b1ff0ef          	jal	ra,800010e4 <myproc>
    80001738:	fea48ae3          	beq	s1,a0,8000172c <wakeup+0x30>
      acquire(&p->lock);
    8000173c:	8526                	mv	a0,s1
    8000173e:	244040ef          	jal	ra,80005982 <acquire>
      if(p->state == SLEEPING && p->chan == chan) {
    80001742:	4c9c                	lw	a5,24(s1)
    80001744:	ff3791e3          	bne	a5,s3,80001726 <wakeup+0x2a>
    80001748:	709c                	ld	a5,32(s1)
    8000174a:	fd479ee3          	bne	a5,s4,80001726 <wakeup+0x2a>
        p->state = RUNNABLE;
    8000174e:	0154ac23          	sw	s5,24(s1)
    80001752:	bfd1                	j	80001726 <wakeup+0x2a>
    }
  }
}
    80001754:	70e2                	ld	ra,56(sp)
    80001756:	7442                	ld	s0,48(sp)
    80001758:	74a2                	ld	s1,40(sp)
    8000175a:	7902                	ld	s2,32(sp)
    8000175c:	69e2                	ld	s3,24(sp)
    8000175e:	6a42                	ld	s4,16(sp)
    80001760:	6aa2                	ld	s5,8(sp)
    80001762:	6121                	addi	sp,sp,64
    80001764:	8082                	ret

0000000080001766 <reparent>:
{
    80001766:	7179                	addi	sp,sp,-48
    80001768:	f406                	sd	ra,40(sp)
    8000176a:	f022                	sd	s0,32(sp)
    8000176c:	ec26                	sd	s1,24(sp)
    8000176e:	e84a                	sd	s2,16(sp)
    80001770:	e44e                	sd	s3,8(sp)
    80001772:	e052                	sd	s4,0(sp)
    80001774:	1800                	addi	s0,sp,48
    80001776:	892a                	mv	s2,a0
  for(pp = proc; pp < &proc[NPROC]; pp++){
    80001778:	00007497          	auipc	s1,0x7
    8000177c:	97848493          	addi	s1,s1,-1672 # 800080f0 <proc>
      pp->parent = initproc;
    80001780:	00006a17          	auipc	s4,0x6
    80001784:	300a0a13          	addi	s4,s4,768 # 80007a80 <initproc>
  for(pp = proc; pp < &proc[NPROC]; pp++){
    80001788:	0000c997          	auipc	s3,0xc
    8000178c:	36898993          	addi	s3,s3,872 # 8000daf0 <tickslock>
    80001790:	a029                	j	8000179a <reparent+0x34>
    80001792:	16848493          	addi	s1,s1,360
    80001796:	01348b63          	beq	s1,s3,800017ac <reparent+0x46>
    if(pp->parent == p){
    8000179a:	7c9c                	ld	a5,56(s1)
    8000179c:	ff279be3          	bne	a5,s2,80001792 <reparent+0x2c>
      pp->parent = initproc;
    800017a0:	000a3503          	ld	a0,0(s4)
    800017a4:	fc88                	sd	a0,56(s1)
      wakeup(initproc);
    800017a6:	f57ff0ef          	jal	ra,800016fc <wakeup>
    800017aa:	b7e5                	j	80001792 <reparent+0x2c>
}
    800017ac:	70a2                	ld	ra,40(sp)
    800017ae:	7402                	ld	s0,32(sp)
    800017b0:	64e2                	ld	s1,24(sp)
    800017b2:	6942                	ld	s2,16(sp)
    800017b4:	69a2                	ld	s3,8(sp)
    800017b6:	6a02                	ld	s4,0(sp)
    800017b8:	6145                	addi	sp,sp,48
    800017ba:	8082                	ret

00000000800017bc <exit>:
{
    800017bc:	7179                	addi	sp,sp,-48
    800017be:	f406                	sd	ra,40(sp)
    800017c0:	f022                	sd	s0,32(sp)
    800017c2:	ec26                	sd	s1,24(sp)
    800017c4:	e84a                	sd	s2,16(sp)
    800017c6:	e44e                	sd	s3,8(sp)
    800017c8:	e052                	sd	s4,0(sp)
    800017ca:	1800                	addi	s0,sp,48
    800017cc:	8a2a                	mv	s4,a0
  struct proc *p = myproc();
    800017ce:	917ff0ef          	jal	ra,800010e4 <myproc>
    800017d2:	89aa                	mv	s3,a0
  if(p == initproc)
    800017d4:	00006797          	auipc	a5,0x6
    800017d8:	2ac7b783          	ld	a5,684(a5) # 80007a80 <initproc>
    800017dc:	0d050493          	addi	s1,a0,208
    800017e0:	15050913          	addi	s2,a0,336
    800017e4:	00a79f63          	bne	a5,a0,80001802 <exit+0x46>
    panic("init exiting");
    800017e8:	00006517          	auipc	a0,0x6
    800017ec:	b5050513          	addi	a0,a0,-1200 # 80007338 <etext+0x338>
    800017f0:	683030ef          	jal	ra,80005672 <panic>
      fileclose(f);
    800017f4:	6ab010ef          	jal	ra,8000369e <fileclose>
      p->ofile[fd] = 0;
    800017f8:	0004b023          	sd	zero,0(s1)
  for(int fd = 0; fd < NOFILE; fd++){
    800017fc:	04a1                	addi	s1,s1,8
    800017fe:	01248563          	beq	s1,s2,80001808 <exit+0x4c>
    if(p->ofile[fd]){
    80001802:	6088                	ld	a0,0(s1)
    80001804:	f965                	bnez	a0,800017f4 <exit+0x38>
    80001806:	bfdd                	j	800017fc <exit+0x40>
  begin_op();
    80001808:	27f010ef          	jal	ra,80003286 <begin_op>
  iput(p->cwd);
    8000180c:	1509b503          	ld	a0,336(s3)
    80001810:	360010ef          	jal	ra,80002b70 <iput>
  end_op();
    80001814:	2e1010ef          	jal	ra,800032f4 <end_op>
  p->cwd = 0;
    80001818:	1409b823          	sd	zero,336(s3)
  acquire(&wait_lock);
    8000181c:	00006497          	auipc	s1,0x6
    80001820:	4bc48493          	addi	s1,s1,1212 # 80007cd8 <wait_lock>
    80001824:	8526                	mv	a0,s1
    80001826:	15c040ef          	jal	ra,80005982 <acquire>
  reparent(p);
    8000182a:	854e                	mv	a0,s3
    8000182c:	f3bff0ef          	jal	ra,80001766 <reparent>
  wakeup(p->parent);
    80001830:	0389b503          	ld	a0,56(s3)
    80001834:	ec9ff0ef          	jal	ra,800016fc <wakeup>
  acquire(&p->lock);
    80001838:	854e                	mv	a0,s3
    8000183a:	148040ef          	jal	ra,80005982 <acquire>
  p->xstate = status;
    8000183e:	0349a623          	sw	s4,44(s3)
  p->state = ZOMBIE;
    80001842:	4795                	li	a5,5
    80001844:	00f9ac23          	sw	a5,24(s3)
  release(&wait_lock);
    80001848:	8526                	mv	a0,s1
    8000184a:	1d0040ef          	jal	ra,80005a1a <release>
  sched();
    8000184e:	d7dff0ef          	jal	ra,800015ca <sched>
  panic("zombie exit");
    80001852:	00006517          	auipc	a0,0x6
    80001856:	af650513          	addi	a0,a0,-1290 # 80007348 <etext+0x348>
    8000185a:	619030ef          	jal	ra,80005672 <panic>

000000008000185e <kill>:
// Kill the process with the given pid.
// The victim won't exit until it tries to return
// to user space (see usertrap() in trap.c).
int
kill(int pid)
{
    8000185e:	7179                	addi	sp,sp,-48
    80001860:	f406                	sd	ra,40(sp)
    80001862:	f022                	sd	s0,32(sp)
    80001864:	ec26                	sd	s1,24(sp)
    80001866:	e84a                	sd	s2,16(sp)
    80001868:	e44e                	sd	s3,8(sp)
    8000186a:	1800                	addi	s0,sp,48
    8000186c:	892a                	mv	s2,a0
  struct proc *p;

  for(p = proc; p < &proc[NPROC]; p++){
    8000186e:	00007497          	auipc	s1,0x7
    80001872:	88248493          	addi	s1,s1,-1918 # 800080f0 <proc>
    80001876:	0000c997          	auipc	s3,0xc
    8000187a:	27a98993          	addi	s3,s3,634 # 8000daf0 <tickslock>
    acquire(&p->lock);
    8000187e:	8526                	mv	a0,s1
    80001880:	102040ef          	jal	ra,80005982 <acquire>
    if(p->pid == pid){
    80001884:	589c                	lw	a5,48(s1)
    80001886:	01278b63          	beq	a5,s2,8000189c <kill+0x3e>
        p->state = RUNNABLE;
      }
      release(&p->lock);
      return 0;
    }
    release(&p->lock);
    8000188a:	8526                	mv	a0,s1
    8000188c:	18e040ef          	jal	ra,80005a1a <release>
  for(p = proc; p < &proc[NPROC]; p++){
    80001890:	16848493          	addi	s1,s1,360
    80001894:	ff3495e3          	bne	s1,s3,8000187e <kill+0x20>
  }
  return -1;
    80001898:	557d                	li	a0,-1
    8000189a:	a819                	j	800018b0 <kill+0x52>
      p->killed = 1;
    8000189c:	4785                	li	a5,1
    8000189e:	d49c                	sw	a5,40(s1)
      if(p->state == SLEEPING){
    800018a0:	4c98                	lw	a4,24(s1)
    800018a2:	4789                	li	a5,2
    800018a4:	00f70d63          	beq	a4,a5,800018be <kill+0x60>
      release(&p->lock);
    800018a8:	8526                	mv	a0,s1
    800018aa:	170040ef          	jal	ra,80005a1a <release>
      return 0;
    800018ae:	4501                	li	a0,0
}
    800018b0:	70a2                	ld	ra,40(sp)
    800018b2:	7402                	ld	s0,32(sp)
    800018b4:	64e2                	ld	s1,24(sp)
    800018b6:	6942                	ld	s2,16(sp)
    800018b8:	69a2                	ld	s3,8(sp)
    800018ba:	6145                	addi	sp,sp,48
    800018bc:	8082                	ret
        p->state = RUNNABLE;
    800018be:	478d                	li	a5,3
    800018c0:	cc9c                	sw	a5,24(s1)
    800018c2:	b7dd                	j	800018a8 <kill+0x4a>

00000000800018c4 <setkilled>:

void
setkilled(struct proc *p)
{
    800018c4:	1101                	addi	sp,sp,-32
    800018c6:	ec06                	sd	ra,24(sp)
    800018c8:	e822                	sd	s0,16(sp)
    800018ca:	e426                	sd	s1,8(sp)
    800018cc:	1000                	addi	s0,sp,32
    800018ce:	84aa                	mv	s1,a0
  acquire(&p->lock);
    800018d0:	0b2040ef          	jal	ra,80005982 <acquire>
  p->killed = 1;
    800018d4:	4785                	li	a5,1
    800018d6:	d49c                	sw	a5,40(s1)
  release(&p->lock);
    800018d8:	8526                	mv	a0,s1
    800018da:	140040ef          	jal	ra,80005a1a <release>
}
    800018de:	60e2                	ld	ra,24(sp)
    800018e0:	6442                	ld	s0,16(sp)
    800018e2:	64a2                	ld	s1,8(sp)
    800018e4:	6105                	addi	sp,sp,32
    800018e6:	8082                	ret

00000000800018e8 <killed>:

int
killed(struct proc *p)
{
    800018e8:	1101                	addi	sp,sp,-32
    800018ea:	ec06                	sd	ra,24(sp)
    800018ec:	e822                	sd	s0,16(sp)
    800018ee:	e426                	sd	s1,8(sp)
    800018f0:	e04a                	sd	s2,0(sp)
    800018f2:	1000                	addi	s0,sp,32
    800018f4:	84aa                	mv	s1,a0
  int k;

  acquire(&p->lock);
    800018f6:	08c040ef          	jal	ra,80005982 <acquire>
  k = p->killed;
    800018fa:	0284a903          	lw	s2,40(s1)
  release(&p->lock);
    800018fe:	8526                	mv	a0,s1
    80001900:	11a040ef          	jal	ra,80005a1a <release>
  return k;
}
    80001904:	854a                	mv	a0,s2
    80001906:	60e2                	ld	ra,24(sp)
    80001908:	6442                	ld	s0,16(sp)
    8000190a:	64a2                	ld	s1,8(sp)
    8000190c:	6902                	ld	s2,0(sp)
    8000190e:	6105                	addi	sp,sp,32
    80001910:	8082                	ret

0000000080001912 <wait>:
{
    80001912:	715d                	addi	sp,sp,-80
    80001914:	e486                	sd	ra,72(sp)
    80001916:	e0a2                	sd	s0,64(sp)
    80001918:	fc26                	sd	s1,56(sp)
    8000191a:	f84a                	sd	s2,48(sp)
    8000191c:	f44e                	sd	s3,40(sp)
    8000191e:	f052                	sd	s4,32(sp)
    80001920:	ec56                	sd	s5,24(sp)
    80001922:	e85a                	sd	s6,16(sp)
    80001924:	e45e                	sd	s7,8(sp)
    80001926:	e062                	sd	s8,0(sp)
    80001928:	0880                	addi	s0,sp,80
    8000192a:	8b2a                	mv	s6,a0
  struct proc *p = myproc();
    8000192c:	fb8ff0ef          	jal	ra,800010e4 <myproc>
    80001930:	892a                	mv	s2,a0
  acquire(&wait_lock);
    80001932:	00006517          	auipc	a0,0x6
    80001936:	3a650513          	addi	a0,a0,934 # 80007cd8 <wait_lock>
    8000193a:	048040ef          	jal	ra,80005982 <acquire>
    havekids = 0;
    8000193e:	4b81                	li	s7,0
        if(pp->state == ZOMBIE){
    80001940:	4a15                	li	s4,5
        havekids = 1;
    80001942:	4a85                	li	s5,1
    for(pp = proc; pp < &proc[NPROC]; pp++){
    80001944:	0000c997          	auipc	s3,0xc
    80001948:	1ac98993          	addi	s3,s3,428 # 8000daf0 <tickslock>
    sleep(p, &wait_lock);  //DOC: wait-sleep
    8000194c:	00006c17          	auipc	s8,0x6
    80001950:	38cc0c13          	addi	s8,s8,908 # 80007cd8 <wait_lock>
    havekids = 0;
    80001954:	875e                	mv	a4,s7
    for(pp = proc; pp < &proc[NPROC]; pp++){
    80001956:	00006497          	auipc	s1,0x6
    8000195a:	79a48493          	addi	s1,s1,1946 # 800080f0 <proc>
    8000195e:	a899                	j	800019b4 <wait+0xa2>
          pid = pp->pid;
    80001960:	0304a983          	lw	s3,48(s1)
          if(addr != 0 && copyout(p->pagetable, addr, (char *)&pp->xstate,
    80001964:	000b0c63          	beqz	s6,8000197c <wait+0x6a>
    80001968:	4691                	li	a3,4
    8000196a:	02c48613          	addi	a2,s1,44
    8000196e:	85da                	mv	a1,s6
    80001970:	05093503          	ld	a0,80(s2)
    80001974:	b14ff0ef          	jal	ra,80000c88 <copyout>
    80001978:	00054f63          	bltz	a0,80001996 <wait+0x84>
          freeproc(pp);
    8000197c:	8526                	mv	a0,s1
    8000197e:	8d9ff0ef          	jal	ra,80001256 <freeproc>
          release(&pp->lock);
    80001982:	8526                	mv	a0,s1
    80001984:	096040ef          	jal	ra,80005a1a <release>
          release(&wait_lock);
    80001988:	00006517          	auipc	a0,0x6
    8000198c:	35050513          	addi	a0,a0,848 # 80007cd8 <wait_lock>
    80001990:	08a040ef          	jal	ra,80005a1a <release>
          return pid;
    80001994:	a891                	j	800019e8 <wait+0xd6>
            release(&pp->lock);
    80001996:	8526                	mv	a0,s1
    80001998:	082040ef          	jal	ra,80005a1a <release>
            release(&wait_lock);
    8000199c:	00006517          	auipc	a0,0x6
    800019a0:	33c50513          	addi	a0,a0,828 # 80007cd8 <wait_lock>
    800019a4:	076040ef          	jal	ra,80005a1a <release>
            return -1;
    800019a8:	59fd                	li	s3,-1
    800019aa:	a83d                	j	800019e8 <wait+0xd6>
    for(pp = proc; pp < &proc[NPROC]; pp++){
    800019ac:	16848493          	addi	s1,s1,360
    800019b0:	03348063          	beq	s1,s3,800019d0 <wait+0xbe>
      if(pp->parent == p){
    800019b4:	7c9c                	ld	a5,56(s1)
    800019b6:	ff279be3          	bne	a5,s2,800019ac <wait+0x9a>
        acquire(&pp->lock);
    800019ba:	8526                	mv	a0,s1
    800019bc:	7c7030ef          	jal	ra,80005982 <acquire>
        if(pp->state == ZOMBIE){
    800019c0:	4c9c                	lw	a5,24(s1)
    800019c2:	f9478fe3          	beq	a5,s4,80001960 <wait+0x4e>
        release(&pp->lock);
    800019c6:	8526                	mv	a0,s1
    800019c8:	052040ef          	jal	ra,80005a1a <release>
        havekids = 1;
    800019cc:	8756                	mv	a4,s5
    800019ce:	bff9                	j	800019ac <wait+0x9a>
    if(!havekids || killed(p)){
    800019d0:	c709                	beqz	a4,800019da <wait+0xc8>
    800019d2:	854a                	mv	a0,s2
    800019d4:	f15ff0ef          	jal	ra,800018e8 <killed>
    800019d8:	c50d                	beqz	a0,80001a02 <wait+0xf0>
      release(&wait_lock);
    800019da:	00006517          	auipc	a0,0x6
    800019de:	2fe50513          	addi	a0,a0,766 # 80007cd8 <wait_lock>
    800019e2:	038040ef          	jal	ra,80005a1a <release>
      return -1;
    800019e6:	59fd                	li	s3,-1
}
    800019e8:	854e                	mv	a0,s3
    800019ea:	60a6                	ld	ra,72(sp)
    800019ec:	6406                	ld	s0,64(sp)
    800019ee:	74e2                	ld	s1,56(sp)
    800019f0:	7942                	ld	s2,48(sp)
    800019f2:	79a2                	ld	s3,40(sp)
    800019f4:	7a02                	ld	s4,32(sp)
    800019f6:	6ae2                	ld	s5,24(sp)
    800019f8:	6b42                	ld	s6,16(sp)
    800019fa:	6ba2                	ld	s7,8(sp)
    800019fc:	6c02                	ld	s8,0(sp)
    800019fe:	6161                	addi	sp,sp,80
    80001a00:	8082                	ret
    sleep(p, &wait_lock);  //DOC: wait-sleep
    80001a02:	85e2                	mv	a1,s8
    80001a04:	854a                	mv	a0,s2
    80001a06:	cabff0ef          	jal	ra,800016b0 <sleep>
    havekids = 0;
    80001a0a:	b7a9                	j	80001954 <wait+0x42>

0000000080001a0c <either_copyout>:
// Copy to either a user address, or kernel address,
// depending on usr_dst.
// Returns 0 on success, -1 on error.
int
either_copyout(int user_dst, uint64 dst, void *src, uint64 len)
{
    80001a0c:	7179                	addi	sp,sp,-48
    80001a0e:	f406                	sd	ra,40(sp)
    80001a10:	f022                	sd	s0,32(sp)
    80001a12:	ec26                	sd	s1,24(sp)
    80001a14:	e84a                	sd	s2,16(sp)
    80001a16:	e44e                	sd	s3,8(sp)
    80001a18:	e052                	sd	s4,0(sp)
    80001a1a:	1800                	addi	s0,sp,48
    80001a1c:	84aa                	mv	s1,a0
    80001a1e:	892e                	mv	s2,a1
    80001a20:	89b2                	mv	s3,a2
    80001a22:	8a36                	mv	s4,a3
  struct proc *p = myproc();
    80001a24:	ec0ff0ef          	jal	ra,800010e4 <myproc>
  if(user_dst){
    80001a28:	cc99                	beqz	s1,80001a46 <either_copyout+0x3a>
    return copyout(p->pagetable, dst, src, len);
    80001a2a:	86d2                	mv	a3,s4
    80001a2c:	864e                	mv	a2,s3
    80001a2e:	85ca                	mv	a1,s2
    80001a30:	6928                	ld	a0,80(a0)
    80001a32:	a56ff0ef          	jal	ra,80000c88 <copyout>
  } else {
    memmove((char *)dst, src, len);
    return 0;
  }
}
    80001a36:	70a2                	ld	ra,40(sp)
    80001a38:	7402                	ld	s0,32(sp)
    80001a3a:	64e2                	ld	s1,24(sp)
    80001a3c:	6942                	ld	s2,16(sp)
    80001a3e:	69a2                	ld	s3,8(sp)
    80001a40:	6a02                	ld	s4,0(sp)
    80001a42:	6145                	addi	sp,sp,48
    80001a44:	8082                	ret
    memmove((char *)dst, src, len);
    80001a46:	000a061b          	sext.w	a2,s4
    80001a4a:	85ce                	mv	a1,s3
    80001a4c:	854a                	mv	a0,s2
    80001a4e:	8c1fe0ef          	jal	ra,8000030e <memmove>
    return 0;
    80001a52:	8526                	mv	a0,s1
    80001a54:	b7cd                	j	80001a36 <either_copyout+0x2a>

0000000080001a56 <either_copyin>:
// Copy from either a user address, or kernel address,
// depending on usr_src.
// Returns 0 on success, -1 on error.
int
either_copyin(void *dst, int user_src, uint64 src, uint64 len)
{
    80001a56:	7179                	addi	sp,sp,-48
    80001a58:	f406                	sd	ra,40(sp)
    80001a5a:	f022                	sd	s0,32(sp)
    80001a5c:	ec26                	sd	s1,24(sp)
    80001a5e:	e84a                	sd	s2,16(sp)
    80001a60:	e44e                	sd	s3,8(sp)
    80001a62:	e052                	sd	s4,0(sp)
    80001a64:	1800                	addi	s0,sp,48
    80001a66:	892a                	mv	s2,a0
    80001a68:	84ae                	mv	s1,a1
    80001a6a:	89b2                	mv	s3,a2
    80001a6c:	8a36                	mv	s4,a3
  struct proc *p = myproc();
    80001a6e:	e76ff0ef          	jal	ra,800010e4 <myproc>
  if(user_src){
    80001a72:	cc99                	beqz	s1,80001a90 <either_copyin+0x3a>
    return copyin(p->pagetable, dst, src, len);
    80001a74:	86d2                	mv	a3,s4
    80001a76:	864e                	mv	a2,s3
    80001a78:	85ca                	mv	a1,s2
    80001a7a:	6928                	ld	a0,80(a0)
    80001a7c:	ac4ff0ef          	jal	ra,80000d40 <copyin>
  } else {
    memmove(dst, (char*)src, len);
    return 0;
  }
}
    80001a80:	70a2                	ld	ra,40(sp)
    80001a82:	7402                	ld	s0,32(sp)
    80001a84:	64e2                	ld	s1,24(sp)
    80001a86:	6942                	ld	s2,16(sp)
    80001a88:	69a2                	ld	s3,8(sp)
    80001a8a:	6a02                	ld	s4,0(sp)
    80001a8c:	6145                	addi	sp,sp,48
    80001a8e:	8082                	ret
    memmove(dst, (char*)src, len);
    80001a90:	000a061b          	sext.w	a2,s4
    80001a94:	85ce                	mv	a1,s3
    80001a96:	854a                	mv	a0,s2
    80001a98:	877fe0ef          	jal	ra,8000030e <memmove>
    return 0;
    80001a9c:	8526                	mv	a0,s1
    80001a9e:	b7cd                	j	80001a80 <either_copyin+0x2a>

0000000080001aa0 <procdump>:
// Print a process listing to console.  For debugging.
// Runs when user types ^P on console.
// No lock to avoid wedging a stuck machine further.
void
procdump(void)
{
    80001aa0:	715d                	addi	sp,sp,-80
    80001aa2:	e486                	sd	ra,72(sp)
    80001aa4:	e0a2                	sd	s0,64(sp)
    80001aa6:	fc26                	sd	s1,56(sp)
    80001aa8:	f84a                	sd	s2,48(sp)
    80001aaa:	f44e                	sd	s3,40(sp)
    80001aac:	f052                	sd	s4,32(sp)
    80001aae:	ec56                	sd	s5,24(sp)
    80001ab0:	e85a                	sd	s6,16(sp)
    80001ab2:	e45e                	sd	s7,8(sp)
    80001ab4:	0880                	addi	s0,sp,80
  [ZOMBIE]    "zombie"
  };
  struct proc *p;
  char *state;

  printf("\n");
    80001ab6:	00005517          	auipc	a0,0x5
    80001aba:	61a50513          	addi	a0,a0,1562 # 800070d0 <etext+0xd0>
    80001abe:	101030ef          	jal	ra,800053be <printf>
  for(p = proc; p < &proc[NPROC]; p++){
    80001ac2:	00006497          	auipc	s1,0x6
    80001ac6:	78648493          	addi	s1,s1,1926 # 80008248 <proc+0x158>
    80001aca:	0000c917          	auipc	s2,0xc
    80001ace:	17e90913          	addi	s2,s2,382 # 8000dc48 <bcache+0x140>
    if(p->state == UNUSED)
      continue;
    if(p->state >= 0 && p->state < NELEM(states) && states[p->state])
    80001ad2:	4b15                	li	s6,5
      state = states[p->state];
    else
      state = "???";
    80001ad4:	00006997          	auipc	s3,0x6
    80001ad8:	88498993          	addi	s3,s3,-1916 # 80007358 <etext+0x358>
    printf("%d %s %s", p->pid, state, p->name);
    80001adc:	00006a97          	auipc	s5,0x6
    80001ae0:	884a8a93          	addi	s5,s5,-1916 # 80007360 <etext+0x360>
    printf("\n");
    80001ae4:	00005a17          	auipc	s4,0x5
    80001ae8:	5eca0a13          	addi	s4,s4,1516 # 800070d0 <etext+0xd0>
    if(p->state >= 0 && p->state < NELEM(states) && states[p->state])
    80001aec:	00006b97          	auipc	s7,0x6
    80001af0:	8b4b8b93          	addi	s7,s7,-1868 # 800073a0 <states.0>
    80001af4:	a829                	j	80001b0e <procdump+0x6e>
    printf("%d %s %s", p->pid, state, p->name);
    80001af6:	ed86a583          	lw	a1,-296(a3)
    80001afa:	8556                	mv	a0,s5
    80001afc:	0c3030ef          	jal	ra,800053be <printf>
    printf("\n");
    80001b00:	8552                	mv	a0,s4
    80001b02:	0bd030ef          	jal	ra,800053be <printf>
  for(p = proc; p < &proc[NPROC]; p++){
    80001b06:	16848493          	addi	s1,s1,360
    80001b0a:	03248263          	beq	s1,s2,80001b2e <procdump+0x8e>
    if(p->state == UNUSED)
    80001b0e:	86a6                	mv	a3,s1
    80001b10:	ec04a783          	lw	a5,-320(s1)
    80001b14:	dbed                	beqz	a5,80001b06 <procdump+0x66>
      state = "???";
    80001b16:	864e                	mv	a2,s3
    if(p->state >= 0 && p->state < NELEM(states) && states[p->state])
    80001b18:	fcfb6fe3          	bltu	s6,a5,80001af6 <procdump+0x56>
    80001b1c:	02079713          	slli	a4,a5,0x20
    80001b20:	01d75793          	srli	a5,a4,0x1d
    80001b24:	97de                	add	a5,a5,s7
    80001b26:	6390                	ld	a2,0(a5)
    80001b28:	f679                	bnez	a2,80001af6 <procdump+0x56>
      state = "???";
    80001b2a:	864e                	mv	a2,s3
    80001b2c:	b7e9                	j	80001af6 <procdump+0x56>
  }
}
    80001b2e:	60a6                	ld	ra,72(sp)
    80001b30:	6406                	ld	s0,64(sp)
    80001b32:	74e2                	ld	s1,56(sp)
    80001b34:	7942                	ld	s2,48(sp)
    80001b36:	79a2                	ld	s3,40(sp)
    80001b38:	7a02                	ld	s4,32(sp)
    80001b3a:	6ae2                	ld	s5,24(sp)
    80001b3c:	6b42                	ld	s6,16(sp)
    80001b3e:	6ba2                	ld	s7,8(sp)
    80001b40:	6161                	addi	sp,sp,80
    80001b42:	8082                	ret

0000000080001b44 <swtch>:
    80001b44:	00153023          	sd	ra,0(a0)
    80001b48:	00253423          	sd	sp,8(a0)
    80001b4c:	e900                	sd	s0,16(a0)
    80001b4e:	ed04                	sd	s1,24(a0)
    80001b50:	03253023          	sd	s2,32(a0)
    80001b54:	03353423          	sd	s3,40(a0)
    80001b58:	03453823          	sd	s4,48(a0)
    80001b5c:	03553c23          	sd	s5,56(a0)
    80001b60:	05653023          	sd	s6,64(a0)
    80001b64:	05753423          	sd	s7,72(a0)
    80001b68:	05853823          	sd	s8,80(a0)
    80001b6c:	05953c23          	sd	s9,88(a0)
    80001b70:	07a53023          	sd	s10,96(a0)
    80001b74:	07b53423          	sd	s11,104(a0)
    80001b78:	0005b083          	ld	ra,0(a1)
    80001b7c:	0085b103          	ld	sp,8(a1)
    80001b80:	6980                	ld	s0,16(a1)
    80001b82:	6d84                	ld	s1,24(a1)
    80001b84:	0205b903          	ld	s2,32(a1)
    80001b88:	0285b983          	ld	s3,40(a1)
    80001b8c:	0305ba03          	ld	s4,48(a1)
    80001b90:	0385ba83          	ld	s5,56(a1)
    80001b94:	0405bb03          	ld	s6,64(a1)
    80001b98:	0485bb83          	ld	s7,72(a1)
    80001b9c:	0505bc03          	ld	s8,80(a1)
    80001ba0:	0585bc83          	ld	s9,88(a1)
    80001ba4:	0605bd03          	ld	s10,96(a1)
    80001ba8:	0685bd83          	ld	s11,104(a1)
    80001bac:	8082                	ret

0000000080001bae <trapinit>:

extern int devintr();

void
trapinit(void)
{
    80001bae:	1141                	addi	sp,sp,-16
    80001bb0:	e406                	sd	ra,8(sp)
    80001bb2:	e022                	sd	s0,0(sp)
    80001bb4:	0800                	addi	s0,sp,16
  initlock(&tickslock, "time");
    80001bb6:	00006597          	auipc	a1,0x6
    80001bba:	81a58593          	addi	a1,a1,-2022 # 800073d0 <states.0+0x30>
    80001bbe:	0000c517          	auipc	a0,0xc
    80001bc2:	f3250513          	addi	a0,a0,-206 # 8000daf0 <tickslock>
    80001bc6:	53d030ef          	jal	ra,80005902 <initlock>
}
    80001bca:	60a2                	ld	ra,8(sp)
    80001bcc:	6402                	ld	s0,0(sp)
    80001bce:	0141                	addi	sp,sp,16
    80001bd0:	8082                	ret

0000000080001bd2 <trapinithart>:

// set up to take exceptions and traps while in the kernel.
void
trapinithart(void)
{
    80001bd2:	1141                	addi	sp,sp,-16
    80001bd4:	e422                	sd	s0,8(sp)
    80001bd6:	0800                	addi	s0,sp,16
  asm volatile("csrw stvec, %0" : : "r" (x));
    80001bd8:	00003797          	auipc	a5,0x3
    80001bdc:	d8878793          	addi	a5,a5,-632 # 80004960 <kernelvec>
    80001be0:	10579073          	csrw	stvec,a5
  w_stvec((uint64)kernelvec);
}
    80001be4:	6422                	ld	s0,8(sp)
    80001be6:	0141                	addi	sp,sp,16
    80001be8:	8082                	ret

0000000080001bea <usertrapret>:
//
// return to user space
//
void
usertrapret(void)
{
    80001bea:	1141                	addi	sp,sp,-16
    80001bec:	e406                	sd	ra,8(sp)
    80001bee:	e022                	sd	s0,0(sp)
    80001bf0:	0800                	addi	s0,sp,16
  struct proc *p = myproc();
    80001bf2:	cf2ff0ef          	jal	ra,800010e4 <myproc>
  asm volatile("csrr %0, sstatus" : "=r" (x) );
    80001bf6:	100027f3          	csrr	a5,sstatus
  w_sstatus(r_sstatus() & ~SSTATUS_SIE);
    80001bfa:	9bf5                	andi	a5,a5,-3
  asm volatile("csrw sstatus, %0" : : "r" (x));
    80001bfc:	10079073          	csrw	sstatus,a5
  // kerneltrap() to usertrap(), so turn off interrupts until
  // we're back in user space, where usertrap() is correct.
  intr_off();

  // send syscalls, interrupts, and exceptions to uservec in trampoline.S
  uint64 trampoline_uservec = TRAMPOLINE + (uservec - trampoline);
    80001c00:	00004697          	auipc	a3,0x4
    80001c04:	40068693          	addi	a3,a3,1024 # 80006000 <_trampoline>
    80001c08:	00004717          	auipc	a4,0x4
    80001c0c:	3f870713          	addi	a4,a4,1016 # 80006000 <_trampoline>
    80001c10:	8f15                	sub	a4,a4,a3
    80001c12:	040007b7          	lui	a5,0x4000
    80001c16:	17fd                	addi	a5,a5,-1 # 3ffffff <_entry-0x7c000001>
    80001c18:	07b2                	slli	a5,a5,0xc
    80001c1a:	973e                	add	a4,a4,a5
  asm volatile("csrw stvec, %0" : : "r" (x));
    80001c1c:	10571073          	csrw	stvec,a4
  w_stvec(trampoline_uservec);

  // set up trapframe values that uservec will need when
  // the process next traps into the kernel.
  p->trapframe->kernel_satp = r_satp();         // kernel page table
    80001c20:	6d38                	ld	a4,88(a0)
  asm volatile("csrr %0, satp" : "=r" (x) );
    80001c22:	18002673          	csrr	a2,satp
    80001c26:	e310                	sd	a2,0(a4)
  p->trapframe->kernel_sp = p->kstack + PGSIZE; // process's kernel stack
    80001c28:	6d30                	ld	a2,88(a0)
    80001c2a:	6138                	ld	a4,64(a0)
    80001c2c:	6585                	lui	a1,0x1
    80001c2e:	972e                	add	a4,a4,a1
    80001c30:	e618                	sd	a4,8(a2)
  p->trapframe->kernel_trap = (uint64)usertrap;
    80001c32:	6d38                	ld	a4,88(a0)
    80001c34:	00000617          	auipc	a2,0x0
    80001c38:	10c60613          	addi	a2,a2,268 # 80001d40 <usertrap>
    80001c3c:	eb10                	sd	a2,16(a4)
  p->trapframe->kernel_hartid = r_tp();         // hartid for cpuid()
    80001c3e:	6d38                	ld	a4,88(a0)
  asm volatile("mv %0, tp" : "=r" (x) );
    80001c40:	8612                	mv	a2,tp
    80001c42:	f310                	sd	a2,32(a4)
  asm volatile("csrr %0, sstatus" : "=r" (x) );
    80001c44:	10002773          	csrr	a4,sstatus
  // set up the registers that trampoline.S's sret will use
  // to get to user space.

  // set S Previous Privilege mode to User.
  unsigned long x = r_sstatus();
  x &= ~SSTATUS_SPP; // clear SPP to 0 for user mode
    80001c48:	eff77713          	andi	a4,a4,-257
  x |= SSTATUS_SPIE; // enable interrupts in user mode
    80001c4c:	02076713          	ori	a4,a4,32
  asm volatile("csrw sstatus, %0" : : "r" (x));
    80001c50:	10071073          	csrw	sstatus,a4
  w_sstatus(x);

  // set S Exception Program Counter to the saved user pc.
  w_sepc(p->trapframe->epc);
    80001c54:	6d38                	ld	a4,88(a0)
  asm volatile("csrw sepc, %0" : : "r" (x));
    80001c56:	6f18                	ld	a4,24(a4)
    80001c58:	14171073          	csrw	sepc,a4

  // tell trampoline.S the user page table to switch to.
  uint64 satp = MAKE_SATP(p->pagetable);
    80001c5c:	6928                	ld	a0,80(a0)
    80001c5e:	8131                	srli	a0,a0,0xc

  // jump to userret in trampoline.S at the top of memory, which
  // switches to the user page table, restores user registers,
  // and switches to user mode with sret.
  uint64 trampoline_userret = TRAMPOLINE + (userret - trampoline);
    80001c60:	00004717          	auipc	a4,0x4
    80001c64:	43c70713          	addi	a4,a4,1084 # 8000609c <userret>
    80001c68:	8f15                	sub	a4,a4,a3
    80001c6a:	97ba                	add	a5,a5,a4
  ((void (*)(uint64))trampoline_userret)(satp);
    80001c6c:	577d                	li	a4,-1
    80001c6e:	177e                	slli	a4,a4,0x3f
    80001c70:	8d59                	or	a0,a0,a4
    80001c72:	9782                	jalr	a5
}
    80001c74:	60a2                	ld	ra,8(sp)
    80001c76:	6402                	ld	s0,0(sp)
    80001c78:	0141                	addi	sp,sp,16
    80001c7a:	8082                	ret

0000000080001c7c <clockintr>:
  w_sstatus(sstatus);
}

void
clockintr()
{
    80001c7c:	1101                	addi	sp,sp,-32
    80001c7e:	ec06                	sd	ra,24(sp)
    80001c80:	e822                	sd	s0,16(sp)
    80001c82:	e426                	sd	s1,8(sp)
    80001c84:	1000                	addi	s0,sp,32
  if(cpuid() == 0){
    80001c86:	c32ff0ef          	jal	ra,800010b8 <cpuid>
    80001c8a:	cd19                	beqz	a0,80001ca8 <clockintr+0x2c>
  asm volatile("csrr %0, time" : "=r" (x) );
    80001c8c:	c01027f3          	rdtime	a5
  }

  // ask for the next timer interrupt. this also clears
  // the interrupt request. 1000000 is about a tenth
  // of a second.
  w_stimecmp(r_time() + 1000000);
    80001c90:	000f4737          	lui	a4,0xf4
    80001c94:	24070713          	addi	a4,a4,576 # f4240 <_entry-0x7ff0bdc0>
    80001c98:	97ba                	add	a5,a5,a4
  asm volatile("csrw 0x14d, %0" : : "r" (x));
    80001c9a:	14d79073          	csrw	0x14d,a5
}
    80001c9e:	60e2                	ld	ra,24(sp)
    80001ca0:	6442                	ld	s0,16(sp)
    80001ca2:	64a2                	ld	s1,8(sp)
    80001ca4:	6105                	addi	sp,sp,32
    80001ca6:	8082                	ret
    acquire(&tickslock);
    80001ca8:	0000c497          	auipc	s1,0xc
    80001cac:	e4848493          	addi	s1,s1,-440 # 8000daf0 <tickslock>
    80001cb0:	8526                	mv	a0,s1
    80001cb2:	4d1030ef          	jal	ra,80005982 <acquire>
    ticks++;
    80001cb6:	00006517          	auipc	a0,0x6
    80001cba:	dd250513          	addi	a0,a0,-558 # 80007a88 <ticks>
    80001cbe:	411c                	lw	a5,0(a0)
    80001cc0:	2785                	addiw	a5,a5,1
    80001cc2:	c11c                	sw	a5,0(a0)
    wakeup(&ticks);
    80001cc4:	a39ff0ef          	jal	ra,800016fc <wakeup>
    release(&tickslock);
    80001cc8:	8526                	mv	a0,s1
    80001cca:	551030ef          	jal	ra,80005a1a <release>
    80001cce:	bf7d                	j	80001c8c <clockintr+0x10>

0000000080001cd0 <devintr>:
// returns 2 if timer interrupt,
// 1 if other device,
// 0 if not recognized.
int
devintr()
{
    80001cd0:	1101                	addi	sp,sp,-32
    80001cd2:	ec06                	sd	ra,24(sp)
    80001cd4:	e822                	sd	s0,16(sp)
    80001cd6:	e426                	sd	s1,8(sp)
    80001cd8:	1000                	addi	s0,sp,32
  asm volatile("csrr %0, scause" : "=r" (x) );
    80001cda:	14202773          	csrr	a4,scause
  uint64 scause = r_scause();

  if(scause == 0x8000000000000009L){
    80001cde:	57fd                	li	a5,-1
    80001ce0:	17fe                	slli	a5,a5,0x3f
    80001ce2:	07a5                	addi	a5,a5,9
    80001ce4:	00f70d63          	beq	a4,a5,80001cfe <devintr+0x2e>
    // now allowed to interrupt again.
    if(irq)
      plic_complete(irq);

    return 1;
  } else if(scause == 0x8000000000000005L){
    80001ce8:	57fd                	li	a5,-1
    80001cea:	17fe                	slli	a5,a5,0x3f
    80001cec:	0795                	addi	a5,a5,5
    // timer interrupt.
    clockintr();
    return 2;
  } else {
    return 0;
    80001cee:	4501                	li	a0,0
  } else if(scause == 0x8000000000000005L){
    80001cf0:	04f70463          	beq	a4,a5,80001d38 <devintr+0x68>
  }
}
    80001cf4:	60e2                	ld	ra,24(sp)
    80001cf6:	6442                	ld	s0,16(sp)
    80001cf8:	64a2                	ld	s1,8(sp)
    80001cfa:	6105                	addi	sp,sp,32
    80001cfc:	8082                	ret
    int irq = plic_claim();
    80001cfe:	50b020ef          	jal	ra,80004a08 <plic_claim>
    80001d02:	84aa                	mv	s1,a0
    if(irq == UART0_IRQ){
    80001d04:	47a9                	li	a5,10
    80001d06:	02f50363          	beq	a0,a5,80001d2c <devintr+0x5c>
    } else if(irq == VIRTIO0_IRQ){
    80001d0a:	4785                	li	a5,1
    80001d0c:	02f50363          	beq	a0,a5,80001d32 <devintr+0x62>
    return 1;
    80001d10:	4505                	li	a0,1
    } else if(irq){
    80001d12:	d0ed                	beqz	s1,80001cf4 <devintr+0x24>
      printf("unexpected interrupt irq=%d\n", irq);
    80001d14:	85a6                	mv	a1,s1
    80001d16:	00005517          	auipc	a0,0x5
    80001d1a:	6c250513          	addi	a0,a0,1730 # 800073d8 <states.0+0x38>
    80001d1e:	6a0030ef          	jal	ra,800053be <printf>
      plic_complete(irq);
    80001d22:	8526                	mv	a0,s1
    80001d24:	505020ef          	jal	ra,80004a28 <plic_complete>
    return 1;
    80001d28:	4505                	li	a0,1
    80001d2a:	b7e9                	j	80001cf4 <devintr+0x24>
      uartintr();
    80001d2c:	39b030ef          	jal	ra,800058c6 <uartintr>
    80001d30:	bfcd                	j	80001d22 <devintr+0x52>
      virtio_disk_intr();
    80001d32:	162030ef          	jal	ra,80004e94 <virtio_disk_intr>
    80001d36:	b7f5                	j	80001d22 <devintr+0x52>
    clockintr();
    80001d38:	f45ff0ef          	jal	ra,80001c7c <clockintr>
    return 2;
    80001d3c:	4509                	li	a0,2
    80001d3e:	bf5d                	j	80001cf4 <devintr+0x24>

0000000080001d40 <usertrap>:
{
    80001d40:	1101                	addi	sp,sp,-32
    80001d42:	ec06                	sd	ra,24(sp)
    80001d44:	e822                	sd	s0,16(sp)
    80001d46:	e426                	sd	s1,8(sp)
    80001d48:	e04a                	sd	s2,0(sp)
    80001d4a:	1000                	addi	s0,sp,32
  asm volatile("csrr %0, sstatus" : "=r" (x) );
    80001d4c:	100027f3          	csrr	a5,sstatus
  if((r_sstatus() & SSTATUS_SPP) != 0)
    80001d50:	1007f793          	andi	a5,a5,256
    80001d54:	ef85                	bnez	a5,80001d8c <usertrap+0x4c>
  asm volatile("csrw stvec, %0" : : "r" (x));
    80001d56:	00003797          	auipc	a5,0x3
    80001d5a:	c0a78793          	addi	a5,a5,-1014 # 80004960 <kernelvec>
    80001d5e:	10579073          	csrw	stvec,a5
  struct proc *p = myproc();
    80001d62:	b82ff0ef          	jal	ra,800010e4 <myproc>
    80001d66:	84aa                	mv	s1,a0
  p->trapframe->epc = r_sepc();
    80001d68:	6d3c                	ld	a5,88(a0)
  asm volatile("csrr %0, sepc" : "=r" (x) );
    80001d6a:	14102773          	csrr	a4,sepc
    80001d6e:	ef98                	sd	a4,24(a5)
  asm volatile("csrr %0, scause" : "=r" (x) );
    80001d70:	14202773          	csrr	a4,scause
  if(r_scause() == 8){
    80001d74:	47a1                	li	a5,8
    80001d76:	02f70163          	beq	a4,a5,80001d98 <usertrap+0x58>
  } else if((which_dev = devintr()) != 0){
    80001d7a:	f57ff0ef          	jal	ra,80001cd0 <devintr>
    80001d7e:	892a                	mv	s2,a0
    80001d80:	c135                	beqz	a0,80001de4 <usertrap+0xa4>
  if(killed(p))
    80001d82:	8526                	mv	a0,s1
    80001d84:	b65ff0ef          	jal	ra,800018e8 <killed>
    80001d88:	cd1d                	beqz	a0,80001dc6 <usertrap+0x86>
    80001d8a:	a81d                	j	80001dc0 <usertrap+0x80>
    panic("usertrap: not from user mode");
    80001d8c:	00005517          	auipc	a0,0x5
    80001d90:	66c50513          	addi	a0,a0,1644 # 800073f8 <states.0+0x58>
    80001d94:	0df030ef          	jal	ra,80005672 <panic>
    if(killed(p))
    80001d98:	b51ff0ef          	jal	ra,800018e8 <killed>
    80001d9c:	e121                	bnez	a0,80001ddc <usertrap+0x9c>
    p->trapframe->epc += 4;
    80001d9e:	6cb8                	ld	a4,88(s1)
    80001da0:	6f1c                	ld	a5,24(a4)
    80001da2:	0791                	addi	a5,a5,4
    80001da4:	ef1c                	sd	a5,24(a4)
  asm volatile("csrr %0, sstatus" : "=r" (x) );
    80001da6:	100027f3          	csrr	a5,sstatus
  w_sstatus(r_sstatus() | SSTATUS_SIE);
    80001daa:	0027e793          	ori	a5,a5,2
  asm volatile("csrw sstatus, %0" : : "r" (x));
    80001dae:	10079073          	csrw	sstatus,a5
    syscall();
    80001db2:	248000ef          	jal	ra,80001ffa <syscall>
  if(killed(p))
    80001db6:	8526                	mv	a0,s1
    80001db8:	b31ff0ef          	jal	ra,800018e8 <killed>
    80001dbc:	c901                	beqz	a0,80001dcc <usertrap+0x8c>
    80001dbe:	4901                	li	s2,0
    exit(-1);
    80001dc0:	557d                	li	a0,-1
    80001dc2:	9fbff0ef          	jal	ra,800017bc <exit>
  if(which_dev == 2)
    80001dc6:	4789                	li	a5,2
    80001dc8:	04f90563          	beq	s2,a5,80001e12 <usertrap+0xd2>
  usertrapret();
    80001dcc:	e1fff0ef          	jal	ra,80001bea <usertrapret>
}
    80001dd0:	60e2                	ld	ra,24(sp)
    80001dd2:	6442                	ld	s0,16(sp)
    80001dd4:	64a2                	ld	s1,8(sp)
    80001dd6:	6902                	ld	s2,0(sp)
    80001dd8:	6105                	addi	sp,sp,32
    80001dda:	8082                	ret
      exit(-1);
    80001ddc:	557d                	li	a0,-1
    80001dde:	9dfff0ef          	jal	ra,800017bc <exit>
    80001de2:	bf75                	j	80001d9e <usertrap+0x5e>
  asm volatile("csrr %0, scause" : "=r" (x) );
    80001de4:	142025f3          	csrr	a1,scause
    printf("usertrap(): unexpected scause 0x%lx pid=%d\n", r_scause(), p->pid);
    80001de8:	5890                	lw	a2,48(s1)
    80001dea:	00005517          	auipc	a0,0x5
    80001dee:	62e50513          	addi	a0,a0,1582 # 80007418 <states.0+0x78>
    80001df2:	5cc030ef          	jal	ra,800053be <printf>
  asm volatile("csrr %0, sepc" : "=r" (x) );
    80001df6:	141025f3          	csrr	a1,sepc
  asm volatile("csrr %0, stval" : "=r" (x) );
    80001dfa:	14302673          	csrr	a2,stval
    printf("            sepc=0x%lx stval=0x%lx\n", r_sepc(), r_stval());
    80001dfe:	00005517          	auipc	a0,0x5
    80001e02:	64a50513          	addi	a0,a0,1610 # 80007448 <states.0+0xa8>
    80001e06:	5b8030ef          	jal	ra,800053be <printf>
    setkilled(p);
    80001e0a:	8526                	mv	a0,s1
    80001e0c:	ab9ff0ef          	jal	ra,800018c4 <setkilled>
    80001e10:	b75d                	j	80001db6 <usertrap+0x76>
    yield();
    80001e12:	873ff0ef          	jal	ra,80001684 <yield>
    80001e16:	bf5d                	j	80001dcc <usertrap+0x8c>

0000000080001e18 <kerneltrap>:
{
    80001e18:	7179                	addi	sp,sp,-48
    80001e1a:	f406                	sd	ra,40(sp)
    80001e1c:	f022                	sd	s0,32(sp)
    80001e1e:	ec26                	sd	s1,24(sp)
    80001e20:	e84a                	sd	s2,16(sp)
    80001e22:	e44e                	sd	s3,8(sp)
    80001e24:	1800                	addi	s0,sp,48
  asm volatile("csrr %0, sepc" : "=r" (x) );
    80001e26:	14102973          	csrr	s2,sepc
  asm volatile("csrr %0, sstatus" : "=r" (x) );
    80001e2a:	100024f3          	csrr	s1,sstatus
  asm volatile("csrr %0, scause" : "=r" (x) );
    80001e2e:	142029f3          	csrr	s3,scause
  if((sstatus & SSTATUS_SPP) == 0)
    80001e32:	1004f793          	andi	a5,s1,256
    80001e36:	c795                	beqz	a5,80001e62 <kerneltrap+0x4a>
  asm volatile("csrr %0, sstatus" : "=r" (x) );
    80001e38:	100027f3          	csrr	a5,sstatus
  return (x & SSTATUS_SIE) != 0;
    80001e3c:	8b89                	andi	a5,a5,2
  if(intr_get() != 0)
    80001e3e:	eb85                	bnez	a5,80001e6e <kerneltrap+0x56>
  if((which_dev = devintr()) == 0){
    80001e40:	e91ff0ef          	jal	ra,80001cd0 <devintr>
    80001e44:	c91d                	beqz	a0,80001e7a <kerneltrap+0x62>
  if(which_dev == 2 && myproc() != 0)
    80001e46:	4789                	li	a5,2
    80001e48:	04f50a63          	beq	a0,a5,80001e9c <kerneltrap+0x84>
  asm volatile("csrw sepc, %0" : : "r" (x));
    80001e4c:	14191073          	csrw	sepc,s2
  asm volatile("csrw sstatus, %0" : : "r" (x));
    80001e50:	10049073          	csrw	sstatus,s1
}
    80001e54:	70a2                	ld	ra,40(sp)
    80001e56:	7402                	ld	s0,32(sp)
    80001e58:	64e2                	ld	s1,24(sp)
    80001e5a:	6942                	ld	s2,16(sp)
    80001e5c:	69a2                	ld	s3,8(sp)
    80001e5e:	6145                	addi	sp,sp,48
    80001e60:	8082                	ret
    panic("kerneltrap: not from supervisor mode");
    80001e62:	00005517          	auipc	a0,0x5
    80001e66:	60e50513          	addi	a0,a0,1550 # 80007470 <states.0+0xd0>
    80001e6a:	009030ef          	jal	ra,80005672 <panic>
    panic("kerneltrap: interrupts enabled");
    80001e6e:	00005517          	auipc	a0,0x5
    80001e72:	62a50513          	addi	a0,a0,1578 # 80007498 <states.0+0xf8>
    80001e76:	7fc030ef          	jal	ra,80005672 <panic>
  asm volatile("csrr %0, sepc" : "=r" (x) );
    80001e7a:	14102673          	csrr	a2,sepc
  asm volatile("csrr %0, stval" : "=r" (x) );
    80001e7e:	143026f3          	csrr	a3,stval
    printf("scause=0x%lx sepc=0x%lx stval=0x%lx\n", scause, r_sepc(), r_stval());
    80001e82:	85ce                	mv	a1,s3
    80001e84:	00005517          	auipc	a0,0x5
    80001e88:	63450513          	addi	a0,a0,1588 # 800074b8 <states.0+0x118>
    80001e8c:	532030ef          	jal	ra,800053be <printf>
    panic("kerneltrap");
    80001e90:	00005517          	auipc	a0,0x5
    80001e94:	65050513          	addi	a0,a0,1616 # 800074e0 <states.0+0x140>
    80001e98:	7da030ef          	jal	ra,80005672 <panic>
  if(which_dev == 2 && myproc() != 0)
    80001e9c:	a48ff0ef          	jal	ra,800010e4 <myproc>
    80001ea0:	d555                	beqz	a0,80001e4c <kerneltrap+0x34>
    yield();
    80001ea2:	fe2ff0ef          	jal	ra,80001684 <yield>
    80001ea6:	b75d                	j	80001e4c <kerneltrap+0x34>

0000000080001ea8 <argraw>:
  return strlen(buf);
}

static uint64
argraw(int n)
{
    80001ea8:	1101                	addi	sp,sp,-32
    80001eaa:	ec06                	sd	ra,24(sp)
    80001eac:	e822                	sd	s0,16(sp)
    80001eae:	e426                	sd	s1,8(sp)
    80001eb0:	1000                	addi	s0,sp,32
    80001eb2:	84aa                	mv	s1,a0
  struct proc *p = myproc();
    80001eb4:	a30ff0ef          	jal	ra,800010e4 <myproc>
  switch (n) {
    80001eb8:	4795                	li	a5,5
    80001eba:	0497e163          	bltu	a5,s1,80001efc <argraw+0x54>
    80001ebe:	048a                	slli	s1,s1,0x2
    80001ec0:	00005717          	auipc	a4,0x5
    80001ec4:	65870713          	addi	a4,a4,1624 # 80007518 <states.0+0x178>
    80001ec8:	94ba                	add	s1,s1,a4
    80001eca:	409c                	lw	a5,0(s1)
    80001ecc:	97ba                	add	a5,a5,a4
    80001ece:	8782                	jr	a5
  case 0:
    return p->trapframe->a0;
    80001ed0:	6d3c                	ld	a5,88(a0)
    80001ed2:	7ba8                	ld	a0,112(a5)
  case 5:
    return p->trapframe->a5;
  }
  panic("argraw");
  return -1;
}
    80001ed4:	60e2                	ld	ra,24(sp)
    80001ed6:	6442                	ld	s0,16(sp)
    80001ed8:	64a2                	ld	s1,8(sp)
    80001eda:	6105                	addi	sp,sp,32
    80001edc:	8082                	ret
    return p->trapframe->a1;
    80001ede:	6d3c                	ld	a5,88(a0)
    80001ee0:	7fa8                	ld	a0,120(a5)
    80001ee2:	bfcd                	j	80001ed4 <argraw+0x2c>
    return p->trapframe->a2;
    80001ee4:	6d3c                	ld	a5,88(a0)
    80001ee6:	63c8                	ld	a0,128(a5)
    80001ee8:	b7f5                	j	80001ed4 <argraw+0x2c>
    return p->trapframe->a3;
    80001eea:	6d3c                	ld	a5,88(a0)
    80001eec:	67c8                	ld	a0,136(a5)
    80001eee:	b7dd                	j	80001ed4 <argraw+0x2c>
    return p->trapframe->a4;
    80001ef0:	6d3c                	ld	a5,88(a0)
    80001ef2:	6bc8                	ld	a0,144(a5)
    80001ef4:	b7c5                	j	80001ed4 <argraw+0x2c>
    return p->trapframe->a5;
    80001ef6:	6d3c                	ld	a5,88(a0)
    80001ef8:	6fc8                	ld	a0,152(a5)
    80001efa:	bfe9                	j	80001ed4 <argraw+0x2c>
  panic("argraw");
    80001efc:	00005517          	auipc	a0,0x5
    80001f00:	5f450513          	addi	a0,a0,1524 # 800074f0 <states.0+0x150>
    80001f04:	76e030ef          	jal	ra,80005672 <panic>

0000000080001f08 <fetchaddr>:
{
    80001f08:	1101                	addi	sp,sp,-32
    80001f0a:	ec06                	sd	ra,24(sp)
    80001f0c:	e822                	sd	s0,16(sp)
    80001f0e:	e426                	sd	s1,8(sp)
    80001f10:	e04a                	sd	s2,0(sp)
    80001f12:	1000                	addi	s0,sp,32
    80001f14:	84aa                	mv	s1,a0
    80001f16:	892e                	mv	s2,a1
  struct proc *p = myproc();
    80001f18:	9ccff0ef          	jal	ra,800010e4 <myproc>
  if(addr >= p->sz || addr+sizeof(uint64) > p->sz) // both tests needed, in case of overflow
    80001f1c:	653c                	ld	a5,72(a0)
    80001f1e:	02f4f663          	bgeu	s1,a5,80001f4a <fetchaddr+0x42>
    80001f22:	00848713          	addi	a4,s1,8
    80001f26:	02e7e463          	bltu	a5,a4,80001f4e <fetchaddr+0x46>
  if(copyin(p->pagetable, (char *)ip, addr, sizeof(*ip)) != 0)
    80001f2a:	46a1                	li	a3,8
    80001f2c:	8626                	mv	a2,s1
    80001f2e:	85ca                	mv	a1,s2
    80001f30:	6928                	ld	a0,80(a0)
    80001f32:	e0ffe0ef          	jal	ra,80000d40 <copyin>
    80001f36:	00a03533          	snez	a0,a0
    80001f3a:	40a00533          	neg	a0,a0
}
    80001f3e:	60e2                	ld	ra,24(sp)
    80001f40:	6442                	ld	s0,16(sp)
    80001f42:	64a2                	ld	s1,8(sp)
    80001f44:	6902                	ld	s2,0(sp)
    80001f46:	6105                	addi	sp,sp,32
    80001f48:	8082                	ret
    return -1;
    80001f4a:	557d                	li	a0,-1
    80001f4c:	bfcd                	j	80001f3e <fetchaddr+0x36>
    80001f4e:	557d                	li	a0,-1
    80001f50:	b7fd                	j	80001f3e <fetchaddr+0x36>

0000000080001f52 <fetchstr>:
{
    80001f52:	7179                	addi	sp,sp,-48
    80001f54:	f406                	sd	ra,40(sp)
    80001f56:	f022                	sd	s0,32(sp)
    80001f58:	ec26                	sd	s1,24(sp)
    80001f5a:	e84a                	sd	s2,16(sp)
    80001f5c:	e44e                	sd	s3,8(sp)
    80001f5e:	1800                	addi	s0,sp,48
    80001f60:	892a                	mv	s2,a0
    80001f62:	84ae                	mv	s1,a1
    80001f64:	89b2                	mv	s3,a2
  struct proc *p = myproc();
    80001f66:	97eff0ef          	jal	ra,800010e4 <myproc>
  if(copyinstr(p->pagetable, buf, addr, max) < 0)
    80001f6a:	86ce                	mv	a3,s3
    80001f6c:	864a                	mv	a2,s2
    80001f6e:	85a6                	mv	a1,s1
    80001f70:	6928                	ld	a0,80(a0)
    80001f72:	e55fe0ef          	jal	ra,80000dc6 <copyinstr>
    80001f76:	00054c63          	bltz	a0,80001f8e <fetchstr+0x3c>
  return strlen(buf);
    80001f7a:	8526                	mv	a0,s1
    80001f7c:	caefe0ef          	jal	ra,8000042a <strlen>
}
    80001f80:	70a2                	ld	ra,40(sp)
    80001f82:	7402                	ld	s0,32(sp)
    80001f84:	64e2                	ld	s1,24(sp)
    80001f86:	6942                	ld	s2,16(sp)
    80001f88:	69a2                	ld	s3,8(sp)
    80001f8a:	6145                	addi	sp,sp,48
    80001f8c:	8082                	ret
    return -1;
    80001f8e:	557d                	li	a0,-1
    80001f90:	bfc5                	j	80001f80 <fetchstr+0x2e>

0000000080001f92 <argint>:

// Fetch the nth 32-bit system call argument.
void
argint(int n, int *ip)
{
    80001f92:	1101                	addi	sp,sp,-32
    80001f94:	ec06                	sd	ra,24(sp)
    80001f96:	e822                	sd	s0,16(sp)
    80001f98:	e426                	sd	s1,8(sp)
    80001f9a:	1000                	addi	s0,sp,32
    80001f9c:	84ae                	mv	s1,a1
  *ip = argraw(n);
    80001f9e:	f0bff0ef          	jal	ra,80001ea8 <argraw>
    80001fa2:	c088                	sw	a0,0(s1)
}
    80001fa4:	60e2                	ld	ra,24(sp)
    80001fa6:	6442                	ld	s0,16(sp)
    80001fa8:	64a2                	ld	s1,8(sp)
    80001faa:	6105                	addi	sp,sp,32
    80001fac:	8082                	ret

0000000080001fae <argaddr>:
// Retrieve an argument as a pointer.
// Doesn't check for legality, since
// copyin/copyout will do that.
void
argaddr(int n, uint64 *ip)
{
    80001fae:	1101                	addi	sp,sp,-32
    80001fb0:	ec06                	sd	ra,24(sp)
    80001fb2:	e822                	sd	s0,16(sp)
    80001fb4:	e426                	sd	s1,8(sp)
    80001fb6:	1000                	addi	s0,sp,32
    80001fb8:	84ae                	mv	s1,a1
  *ip = argraw(n);
    80001fba:	eefff0ef          	jal	ra,80001ea8 <argraw>
    80001fbe:	e088                	sd	a0,0(s1)
}
    80001fc0:	60e2                	ld	ra,24(sp)
    80001fc2:	6442                	ld	s0,16(sp)
    80001fc4:	64a2                	ld	s1,8(sp)
    80001fc6:	6105                	addi	sp,sp,32
    80001fc8:	8082                	ret

0000000080001fca <argstr>:
// Fetch the nth word-sized system call argument as a null-terminated string.
// Copies into buf, at most max.
// Returns string length if OK (including nul), -1 if error.
int
argstr(int n, char *buf, int max)
{
    80001fca:	7179                	addi	sp,sp,-48
    80001fcc:	f406                	sd	ra,40(sp)
    80001fce:	f022                	sd	s0,32(sp)
    80001fd0:	ec26                	sd	s1,24(sp)
    80001fd2:	e84a                	sd	s2,16(sp)
    80001fd4:	1800                	addi	s0,sp,48
    80001fd6:	84ae                	mv	s1,a1
    80001fd8:	8932                	mv	s2,a2
  uint64 addr;
  argaddr(n, &addr);
    80001fda:	fd840593          	addi	a1,s0,-40
    80001fde:	fd1ff0ef          	jal	ra,80001fae <argaddr>
  return fetchstr(addr, buf, max);
    80001fe2:	864a                	mv	a2,s2
    80001fe4:	85a6                	mv	a1,s1
    80001fe6:	fd843503          	ld	a0,-40(s0)
    80001fea:	f69ff0ef          	jal	ra,80001f52 <fetchstr>
}
    80001fee:	70a2                	ld	ra,40(sp)
    80001ff0:	7402                	ld	s0,32(sp)
    80001ff2:	64e2                	ld	s1,24(sp)
    80001ff4:	6942                	ld	s2,16(sp)
    80001ff6:	6145                	addi	sp,sp,48
    80001ff8:	8082                	ret

0000000080001ffa <syscall>:
#endif
};

void
syscall(void)
{
    80001ffa:	1101                	addi	sp,sp,-32
    80001ffc:	ec06                	sd	ra,24(sp)
    80001ffe:	e822                	sd	s0,16(sp)
    80002000:	e426                	sd	s1,8(sp)
    80002002:	e04a                	sd	s2,0(sp)
    80002004:	1000                	addi	s0,sp,32
  int num;
  struct proc *p = myproc();
    80002006:	8deff0ef          	jal	ra,800010e4 <myproc>
    8000200a:	84aa                	mv	s1,a0

  num = p->trapframe->a7;
    8000200c:	05853903          	ld	s2,88(a0)
    80002010:	0a893783          	ld	a5,168(s2)
    80002014:	0007869b          	sext.w	a3,a5
  if(num > 0 && num < NELEM(syscalls) && syscalls[num]) {
    80002018:	37fd                	addiw	a5,a5,-1
    8000201a:	02100713          	li	a4,33
    8000201e:	00f76f63          	bltu	a4,a5,8000203c <syscall+0x42>
    80002022:	00369713          	slli	a4,a3,0x3
    80002026:	00005797          	auipc	a5,0x5
    8000202a:	50a78793          	addi	a5,a5,1290 # 80007530 <syscalls>
    8000202e:	97ba                	add	a5,a5,a4
    80002030:	639c                	ld	a5,0(a5)
    80002032:	c789                	beqz	a5,8000203c <syscall+0x42>
    // Use num to lookup the system call function for num, call it,
    // and store its return value in p->trapframe->a0
    p->trapframe->a0 = syscalls[num]();
    80002034:	9782                	jalr	a5
    80002036:	06a93823          	sd	a0,112(s2)
    8000203a:	a829                	j	80002054 <syscall+0x5a>
  } else {
    printf("%d %s: unknown sys call %d\n",
    8000203c:	15848613          	addi	a2,s1,344
    80002040:	588c                	lw	a1,48(s1)
    80002042:	00005517          	auipc	a0,0x5
    80002046:	4b650513          	addi	a0,a0,1206 # 800074f8 <states.0+0x158>
    8000204a:	374030ef          	jal	ra,800053be <printf>
            p->pid, p->name, num);
    p->trapframe->a0 = -1;
    8000204e:	6cbc                	ld	a5,88(s1)
    80002050:	577d                	li	a4,-1
    80002052:	fbb8                	sd	a4,112(a5)
  }
}
    80002054:	60e2                	ld	ra,24(sp)
    80002056:	6442                	ld	s0,16(sp)
    80002058:	64a2                	ld	s1,8(sp)
    8000205a:	6902                	ld	s2,0(sp)
    8000205c:	6105                	addi	sp,sp,32
    8000205e:	8082                	ret

0000000080002060 <sys_exit>:
#include "spinlock.h"
#include "proc.h"

uint64
sys_exit(void)
{
    80002060:	1101                	addi	sp,sp,-32
    80002062:	ec06                	sd	ra,24(sp)
    80002064:	e822                	sd	s0,16(sp)
    80002066:	1000                	addi	s0,sp,32
  int n;
  argint(0, &n);
    80002068:	fec40593          	addi	a1,s0,-20
    8000206c:	4501                	li	a0,0
    8000206e:	f25ff0ef          	jal	ra,80001f92 <argint>
  exit(n);
    80002072:	fec42503          	lw	a0,-20(s0)
    80002076:	f46ff0ef          	jal	ra,800017bc <exit>
  return 0;  // not reached
}
    8000207a:	4501                	li	a0,0
    8000207c:	60e2                	ld	ra,24(sp)
    8000207e:	6442                	ld	s0,16(sp)
    80002080:	6105                	addi	sp,sp,32
    80002082:	8082                	ret

0000000080002084 <sys_getpid>:

uint64
sys_getpid(void)
{
    80002084:	1141                	addi	sp,sp,-16
    80002086:	e406                	sd	ra,8(sp)
    80002088:	e022                	sd	s0,0(sp)
    8000208a:	0800                	addi	s0,sp,16
  return myproc()->pid;
    8000208c:	858ff0ef          	jal	ra,800010e4 <myproc>
}
    80002090:	5908                	lw	a0,48(a0)
    80002092:	60a2                	ld	ra,8(sp)
    80002094:	6402                	ld	s0,0(sp)
    80002096:	0141                	addi	sp,sp,16
    80002098:	8082                	ret

000000008000209a <sys_fork>:

uint64
sys_fork(void)
{
    8000209a:	1141                	addi	sp,sp,-16
    8000209c:	e406                	sd	ra,8(sp)
    8000209e:	e022                	sd	s0,0(sp)
    800020a0:	0800                	addi	s0,sp,16
  return fork();
    800020a2:	b68ff0ef          	jal	ra,8000140a <fork>
}
    800020a6:	60a2                	ld	ra,8(sp)
    800020a8:	6402                	ld	s0,0(sp)
    800020aa:	0141                	addi	sp,sp,16
    800020ac:	8082                	ret

00000000800020ae <sys_wait>:

uint64
sys_wait(void)
{
    800020ae:	1101                	addi	sp,sp,-32
    800020b0:	ec06                	sd	ra,24(sp)
    800020b2:	e822                	sd	s0,16(sp)
    800020b4:	1000                	addi	s0,sp,32
  uint64 p;
  argaddr(0, &p);
    800020b6:	fe840593          	addi	a1,s0,-24
    800020ba:	4501                	li	a0,0
    800020bc:	ef3ff0ef          	jal	ra,80001fae <argaddr>
  return wait(p);
    800020c0:	fe843503          	ld	a0,-24(s0)
    800020c4:	84fff0ef          	jal	ra,80001912 <wait>
}
    800020c8:	60e2                	ld	ra,24(sp)
    800020ca:	6442                	ld	s0,16(sp)
    800020cc:	6105                	addi	sp,sp,32
    800020ce:	8082                	ret

00000000800020d0 <sys_sbrk>:

uint64
sys_sbrk(void)
{
    800020d0:	7179                	addi	sp,sp,-48
    800020d2:	f406                	sd	ra,40(sp)
    800020d4:	f022                	sd	s0,32(sp)
    800020d6:	ec26                	sd	s1,24(sp)
    800020d8:	1800                	addi	s0,sp,48
  uint64 addr;
  int n;

  argint(0, &n);
    800020da:	fdc40593          	addi	a1,s0,-36
    800020de:	4501                	li	a0,0
    800020e0:	eb3ff0ef          	jal	ra,80001f92 <argint>
  addr = myproc()->sz;
    800020e4:	800ff0ef          	jal	ra,800010e4 <myproc>
    800020e8:	6524                	ld	s1,72(a0)
  if(growproc(n) < 0)
    800020ea:	fdc42503          	lw	a0,-36(s0)
    800020ee:	accff0ef          	jal	ra,800013ba <growproc>
    800020f2:	00054863          	bltz	a0,80002102 <sys_sbrk+0x32>
    return -1;
  return addr;
}
    800020f6:	8526                	mv	a0,s1
    800020f8:	70a2                	ld	ra,40(sp)
    800020fa:	7402                	ld	s0,32(sp)
    800020fc:	64e2                	ld	s1,24(sp)
    800020fe:	6145                	addi	sp,sp,48
    80002100:	8082                	ret
    return -1;
    80002102:	54fd                	li	s1,-1
    80002104:	bfcd                	j	800020f6 <sys_sbrk+0x26>

0000000080002106 <sys_sleep>:

uint64
sys_sleep(void)
{
    80002106:	7139                	addi	sp,sp,-64
    80002108:	fc06                	sd	ra,56(sp)
    8000210a:	f822                	sd	s0,48(sp)
    8000210c:	f426                	sd	s1,40(sp)
    8000210e:	f04a                	sd	s2,32(sp)
    80002110:	ec4e                	sd	s3,24(sp)
    80002112:	0080                	addi	s0,sp,64
  int n;
  uint ticks0;

  argint(0, &n);
    80002114:	fcc40593          	addi	a1,s0,-52
    80002118:	4501                	li	a0,0
    8000211a:	e79ff0ef          	jal	ra,80001f92 <argint>
  if(n < 0)
    8000211e:	fcc42783          	lw	a5,-52(s0)
    80002122:	0607c563          	bltz	a5,8000218c <sys_sleep+0x86>
    n = 0;
  acquire(&tickslock);
    80002126:	0000c517          	auipc	a0,0xc
    8000212a:	9ca50513          	addi	a0,a0,-1590 # 8000daf0 <tickslock>
    8000212e:	055030ef          	jal	ra,80005982 <acquire>
  ticks0 = ticks;
    80002132:	00006917          	auipc	s2,0x6
    80002136:	95692903          	lw	s2,-1706(s2) # 80007a88 <ticks>
  while(ticks - ticks0 < n){
    8000213a:	fcc42783          	lw	a5,-52(s0)
    8000213e:	cb8d                	beqz	a5,80002170 <sys_sleep+0x6a>
    if(killed(myproc())){
      release(&tickslock);
      return -1;
    }
    sleep(&ticks, &tickslock);
    80002140:	0000c997          	auipc	s3,0xc
    80002144:	9b098993          	addi	s3,s3,-1616 # 8000daf0 <tickslock>
    80002148:	00006497          	auipc	s1,0x6
    8000214c:	94048493          	addi	s1,s1,-1728 # 80007a88 <ticks>
    if(killed(myproc())){
    80002150:	f95fe0ef          	jal	ra,800010e4 <myproc>
    80002154:	f94ff0ef          	jal	ra,800018e8 <killed>
    80002158:	ed0d                	bnez	a0,80002192 <sys_sleep+0x8c>
    sleep(&ticks, &tickslock);
    8000215a:	85ce                	mv	a1,s3
    8000215c:	8526                	mv	a0,s1
    8000215e:	d52ff0ef          	jal	ra,800016b0 <sleep>
  while(ticks - ticks0 < n){
    80002162:	409c                	lw	a5,0(s1)
    80002164:	412787bb          	subw	a5,a5,s2
    80002168:	fcc42703          	lw	a4,-52(s0)
    8000216c:	fee7e2e3          	bltu	a5,a4,80002150 <sys_sleep+0x4a>
  }
  release(&tickslock);
    80002170:	0000c517          	auipc	a0,0xc
    80002174:	98050513          	addi	a0,a0,-1664 # 8000daf0 <tickslock>
    80002178:	0a3030ef          	jal	ra,80005a1a <release>
  return 0;
    8000217c:	4501                	li	a0,0
}
    8000217e:	70e2                	ld	ra,56(sp)
    80002180:	7442                	ld	s0,48(sp)
    80002182:	74a2                	ld	s1,40(sp)
    80002184:	7902                	ld	s2,32(sp)
    80002186:	69e2                	ld	s3,24(sp)
    80002188:	6121                	addi	sp,sp,64
    8000218a:	8082                	ret
    n = 0;
    8000218c:	fc042623          	sw	zero,-52(s0)
    80002190:	bf59                	j	80002126 <sys_sleep+0x20>
      release(&tickslock);
    80002192:	0000c517          	auipc	a0,0xc
    80002196:	95e50513          	addi	a0,a0,-1698 # 8000daf0 <tickslock>
    8000219a:	081030ef          	jal	ra,80005a1a <release>
      return -1;
    8000219e:	557d                	li	a0,-1
    800021a0:	bff9                	j	8000217e <sys_sleep+0x78>

00000000800021a2 <sys_pgpte>:


#ifdef LAB_PGTBL
int
sys_pgpte(void)
{
    800021a2:	7179                	addi	sp,sp,-48
    800021a4:	f406                	sd	ra,40(sp)
    800021a6:	f022                	sd	s0,32(sp)
    800021a8:	ec26                	sd	s1,24(sp)
    800021aa:	1800                	addi	s0,sp,48
  uint64 va;
  struct proc *p;

  p = myproc();
    800021ac:	f39fe0ef          	jal	ra,800010e4 <myproc>
    800021b0:	84aa                	mv	s1,a0
  argaddr(0, &va);
    800021b2:	fd840593          	addi	a1,s0,-40
    800021b6:	4501                	li	a0,0
    800021b8:	df7ff0ef          	jal	ra,80001fae <argaddr>
  pte_t *pte = pgpte(p->pagetable, va);
    800021bc:	fd843583          	ld	a1,-40(s0)
    800021c0:	68a8                	ld	a0,80(s1)
    800021c2:	daffe0ef          	jal	ra,80000f70 <pgpte>
    800021c6:	87aa                	mv	a5,a0
  if(pte != 0) {
      return (uint64) *pte;
  }
  return 0;
    800021c8:	4501                	li	a0,0
  if(pte != 0) {
    800021ca:	c391                	beqz	a5,800021ce <sys_pgpte+0x2c>
      return (uint64) *pte;
    800021cc:	4388                	lw	a0,0(a5)
}
    800021ce:	70a2                	ld	ra,40(sp)
    800021d0:	7402                	ld	s0,32(sp)
    800021d2:	64e2                	ld	s1,24(sp)
    800021d4:	6145                	addi	sp,sp,48
    800021d6:	8082                	ret

00000000800021d8 <sys_kpgtbl>:
#endif

#ifdef LAB_PGTBL
int
sys_kpgtbl(void)
{
    800021d8:	1141                	addi	sp,sp,-16
    800021da:	e406                	sd	ra,8(sp)
    800021dc:	e022                	sd	s0,0(sp)
    800021de:	0800                	addi	s0,sp,16
  struct proc *p;

  p = myproc();
    800021e0:	f05fe0ef          	jal	ra,800010e4 <myproc>
  vmprint(p->pagetable);
    800021e4:	6928                	ld	a0,80(a0)
    800021e6:	d5dfe0ef          	jal	ra,80000f42 <vmprint>
  return 0;
}
    800021ea:	4501                	li	a0,0
    800021ec:	60a2                	ld	ra,8(sp)
    800021ee:	6402                	ld	s0,0(sp)
    800021f0:	0141                	addi	sp,sp,16
    800021f2:	8082                	ret

00000000800021f4 <sys_kill>:
#endif


uint64
sys_kill(void)
{
    800021f4:	1101                	addi	sp,sp,-32
    800021f6:	ec06                	sd	ra,24(sp)
    800021f8:	e822                	sd	s0,16(sp)
    800021fa:	1000                	addi	s0,sp,32
  int pid;

  argint(0, &pid);
    800021fc:	fec40593          	addi	a1,s0,-20
    80002200:	4501                	li	a0,0
    80002202:	d91ff0ef          	jal	ra,80001f92 <argint>
  return kill(pid);
    80002206:	fec42503          	lw	a0,-20(s0)
    8000220a:	e54ff0ef          	jal	ra,8000185e <kill>
}
    8000220e:	60e2                	ld	ra,24(sp)
    80002210:	6442                	ld	s0,16(sp)
    80002212:	6105                	addi	sp,sp,32
    80002214:	8082                	ret

0000000080002216 <sys_uptime>:

// return how many clock tick interrupts have occurred
// since start.
uint64
sys_uptime(void)
{
    80002216:	1101                	addi	sp,sp,-32
    80002218:	ec06                	sd	ra,24(sp)
    8000221a:	e822                	sd	s0,16(sp)
    8000221c:	e426                	sd	s1,8(sp)
    8000221e:	1000                	addi	s0,sp,32
  uint xticks;

  acquire(&tickslock);
    80002220:	0000c517          	auipc	a0,0xc
    80002224:	8d050513          	addi	a0,a0,-1840 # 8000daf0 <tickslock>
    80002228:	75a030ef          	jal	ra,80005982 <acquire>
  xticks = ticks;
    8000222c:	00006497          	auipc	s1,0x6
    80002230:	85c4a483          	lw	s1,-1956(s1) # 80007a88 <ticks>
  release(&tickslock);
    80002234:	0000c517          	auipc	a0,0xc
    80002238:	8bc50513          	addi	a0,a0,-1860 # 8000daf0 <tickslock>
    8000223c:	7de030ef          	jal	ra,80005a1a <release>
  return xticks;
}
    80002240:	02049513          	slli	a0,s1,0x20
    80002244:	9101                	srli	a0,a0,0x20
    80002246:	60e2                	ld	ra,24(sp)
    80002248:	6442                	ld	s0,16(sp)
    8000224a:	64a2                	ld	s1,8(sp)
    8000224c:	6105                	addi	sp,sp,32
    8000224e:	8082                	ret

0000000080002250 <binit>:
  struct buf head;
} bcache;

void
binit(void)
{
    80002250:	7179                	addi	sp,sp,-48
    80002252:	f406                	sd	ra,40(sp)
    80002254:	f022                	sd	s0,32(sp)
    80002256:	ec26                	sd	s1,24(sp)
    80002258:	e84a                	sd	s2,16(sp)
    8000225a:	e44e                	sd	s3,8(sp)
    8000225c:	e052                	sd	s4,0(sp)
    8000225e:	1800                	addi	s0,sp,48
  struct buf *b;

  initlock(&bcache.lock, "bcache");
    80002260:	00005597          	auipc	a1,0x5
    80002264:	3e858593          	addi	a1,a1,1000 # 80007648 <syscalls+0x118>
    80002268:	0000c517          	auipc	a0,0xc
    8000226c:	8a050513          	addi	a0,a0,-1888 # 8000db08 <bcache>
    80002270:	692030ef          	jal	ra,80005902 <initlock>

  // Create linked list of buffers
  bcache.head.prev = &bcache.head;
    80002274:	00014797          	auipc	a5,0x14
    80002278:	89478793          	addi	a5,a5,-1900 # 80015b08 <bcache+0x8000>
    8000227c:	00014717          	auipc	a4,0x14
    80002280:	af470713          	addi	a4,a4,-1292 # 80015d70 <bcache+0x8268>
    80002284:	2ae7b823          	sd	a4,688(a5)
  bcache.head.next = &bcache.head;
    80002288:	2ae7bc23          	sd	a4,696(a5)
  for(b = bcache.buf; b < bcache.buf+NBUF; b++){
    8000228c:	0000c497          	auipc	s1,0xc
    80002290:	89448493          	addi	s1,s1,-1900 # 8000db20 <bcache+0x18>
    b->next = bcache.head.next;
    80002294:	893e                	mv	s2,a5
    b->prev = &bcache.head;
    80002296:	89ba                	mv	s3,a4
    initsleeplock(&b->lock, "buffer");
    80002298:	00005a17          	auipc	s4,0x5
    8000229c:	3b8a0a13          	addi	s4,s4,952 # 80007650 <syscalls+0x120>
    b->next = bcache.head.next;
    800022a0:	2b893783          	ld	a5,696(s2)
    800022a4:	e8bc                	sd	a5,80(s1)
    b->prev = &bcache.head;
    800022a6:	0534b423          	sd	s3,72(s1)
    initsleeplock(&b->lock, "buffer");
    800022aa:	85d2                	mv	a1,s4
    800022ac:	01048513          	addi	a0,s1,16
    800022b0:	228010ef          	jal	ra,800034d8 <initsleeplock>
    bcache.head.next->prev = b;
    800022b4:	2b893783          	ld	a5,696(s2)
    800022b8:	e7a4                	sd	s1,72(a5)
    bcache.head.next = b;
    800022ba:	2a993c23          	sd	s1,696(s2)
  for(b = bcache.buf; b < bcache.buf+NBUF; b++){
    800022be:	45848493          	addi	s1,s1,1112
    800022c2:	fd349fe3          	bne	s1,s3,800022a0 <binit+0x50>
  }
}
    800022c6:	70a2                	ld	ra,40(sp)
    800022c8:	7402                	ld	s0,32(sp)
    800022ca:	64e2                	ld	s1,24(sp)
    800022cc:	6942                	ld	s2,16(sp)
    800022ce:	69a2                	ld	s3,8(sp)
    800022d0:	6a02                	ld	s4,0(sp)
    800022d2:	6145                	addi	sp,sp,48
    800022d4:	8082                	ret

00000000800022d6 <bread>:
}

// Return a locked buf with the contents of the indicated block.
struct buf*
bread(uint dev, uint blockno)
{
    800022d6:	7179                	addi	sp,sp,-48
    800022d8:	f406                	sd	ra,40(sp)
    800022da:	f022                	sd	s0,32(sp)
    800022dc:	ec26                	sd	s1,24(sp)
    800022de:	e84a                	sd	s2,16(sp)
    800022e0:	e44e                	sd	s3,8(sp)
    800022e2:	1800                	addi	s0,sp,48
    800022e4:	892a                	mv	s2,a0
    800022e6:	89ae                	mv	s3,a1
  acquire(&bcache.lock);
    800022e8:	0000c517          	auipc	a0,0xc
    800022ec:	82050513          	addi	a0,a0,-2016 # 8000db08 <bcache>
    800022f0:	692030ef          	jal	ra,80005982 <acquire>
  for(b = bcache.head.next; b != &bcache.head; b = b->next){
    800022f4:	00014497          	auipc	s1,0x14
    800022f8:	acc4b483          	ld	s1,-1332(s1) # 80015dc0 <bcache+0x82b8>
    800022fc:	00014797          	auipc	a5,0x14
    80002300:	a7478793          	addi	a5,a5,-1420 # 80015d70 <bcache+0x8268>
    80002304:	02f48b63          	beq	s1,a5,8000233a <bread+0x64>
    80002308:	873e                	mv	a4,a5
    8000230a:	a021                	j	80002312 <bread+0x3c>
    8000230c:	68a4                	ld	s1,80(s1)
    8000230e:	02e48663          	beq	s1,a4,8000233a <bread+0x64>
    if(b->dev == dev && b->blockno == blockno){
    80002312:	449c                	lw	a5,8(s1)
    80002314:	ff279ce3          	bne	a5,s2,8000230c <bread+0x36>
    80002318:	44dc                	lw	a5,12(s1)
    8000231a:	ff3799e3          	bne	a5,s3,8000230c <bread+0x36>
      b->refcnt++;
    8000231e:	40bc                	lw	a5,64(s1)
    80002320:	2785                	addiw	a5,a5,1
    80002322:	c0bc                	sw	a5,64(s1)
      release(&bcache.lock);
    80002324:	0000b517          	auipc	a0,0xb
    80002328:	7e450513          	addi	a0,a0,2020 # 8000db08 <bcache>
    8000232c:	6ee030ef          	jal	ra,80005a1a <release>
      acquiresleep(&b->lock);
    80002330:	01048513          	addi	a0,s1,16
    80002334:	1da010ef          	jal	ra,8000350e <acquiresleep>
      return b;
    80002338:	a889                	j	8000238a <bread+0xb4>
  for(b = bcache.head.prev; b != &bcache.head; b = b->prev){
    8000233a:	00014497          	auipc	s1,0x14
    8000233e:	a7e4b483          	ld	s1,-1410(s1) # 80015db8 <bcache+0x82b0>
    80002342:	00014797          	auipc	a5,0x14
    80002346:	a2e78793          	addi	a5,a5,-1490 # 80015d70 <bcache+0x8268>
    8000234a:	00f48863          	beq	s1,a5,8000235a <bread+0x84>
    8000234e:	873e                	mv	a4,a5
    if(b->refcnt == 0) {
    80002350:	40bc                	lw	a5,64(s1)
    80002352:	cb91                	beqz	a5,80002366 <bread+0x90>
  for(b = bcache.head.prev; b != &bcache.head; b = b->prev){
    80002354:	64a4                	ld	s1,72(s1)
    80002356:	fee49de3          	bne	s1,a4,80002350 <bread+0x7a>
  panic("bget: no buffers");
    8000235a:	00005517          	auipc	a0,0x5
    8000235e:	2fe50513          	addi	a0,a0,766 # 80007658 <syscalls+0x128>
    80002362:	310030ef          	jal	ra,80005672 <panic>
      b->dev = dev;
    80002366:	0124a423          	sw	s2,8(s1)
      b->blockno = blockno;
    8000236a:	0134a623          	sw	s3,12(s1)
      b->valid = 0;
    8000236e:	0004a023          	sw	zero,0(s1)
      b->refcnt = 1;
    80002372:	4785                	li	a5,1
    80002374:	c0bc                	sw	a5,64(s1)
      release(&bcache.lock);
    80002376:	0000b517          	auipc	a0,0xb
    8000237a:	79250513          	addi	a0,a0,1938 # 8000db08 <bcache>
    8000237e:	69c030ef          	jal	ra,80005a1a <release>
      acquiresleep(&b->lock);
    80002382:	01048513          	addi	a0,s1,16
    80002386:	188010ef          	jal	ra,8000350e <acquiresleep>
  struct buf *b;

  b = bget(dev, blockno);
  if(!b->valid) {
    8000238a:	409c                	lw	a5,0(s1)
    8000238c:	cb89                	beqz	a5,8000239e <bread+0xc8>
    virtio_disk_rw(b, 0);
    b->valid = 1;
  }
  return b;
}
    8000238e:	8526                	mv	a0,s1
    80002390:	70a2                	ld	ra,40(sp)
    80002392:	7402                	ld	s0,32(sp)
    80002394:	64e2                	ld	s1,24(sp)
    80002396:	6942                	ld	s2,16(sp)
    80002398:	69a2                	ld	s3,8(sp)
    8000239a:	6145                	addi	sp,sp,48
    8000239c:	8082                	ret
    virtio_disk_rw(b, 0);
    8000239e:	4581                	li	a1,0
    800023a0:	8526                	mv	a0,s1
    800023a2:	0d9020ef          	jal	ra,80004c7a <virtio_disk_rw>
    b->valid = 1;
    800023a6:	4785                	li	a5,1
    800023a8:	c09c                	sw	a5,0(s1)
  return b;
    800023aa:	b7d5                	j	8000238e <bread+0xb8>

00000000800023ac <bwrite>:

// Write b's contents to disk.  Must be locked.
void
bwrite(struct buf *b)
{
    800023ac:	1101                	addi	sp,sp,-32
    800023ae:	ec06                	sd	ra,24(sp)
    800023b0:	e822                	sd	s0,16(sp)
    800023b2:	e426                	sd	s1,8(sp)
    800023b4:	1000                	addi	s0,sp,32
    800023b6:	84aa                	mv	s1,a0
  if(!holdingsleep(&b->lock))
    800023b8:	0541                	addi	a0,a0,16
    800023ba:	1d2010ef          	jal	ra,8000358c <holdingsleep>
    800023be:	c911                	beqz	a0,800023d2 <bwrite+0x26>
    panic("bwrite");
  virtio_disk_rw(b, 1);
    800023c0:	4585                	li	a1,1
    800023c2:	8526                	mv	a0,s1
    800023c4:	0b7020ef          	jal	ra,80004c7a <virtio_disk_rw>
}
    800023c8:	60e2                	ld	ra,24(sp)
    800023ca:	6442                	ld	s0,16(sp)
    800023cc:	64a2                	ld	s1,8(sp)
    800023ce:	6105                	addi	sp,sp,32
    800023d0:	8082                	ret
    panic("bwrite");
    800023d2:	00005517          	auipc	a0,0x5
    800023d6:	29e50513          	addi	a0,a0,670 # 80007670 <syscalls+0x140>
    800023da:	298030ef          	jal	ra,80005672 <panic>

00000000800023de <brelse>:

// Release a locked buffer.
// Move to the head of the most-recently-used list.
void
brelse(struct buf *b)
{
    800023de:	1101                	addi	sp,sp,-32
    800023e0:	ec06                	sd	ra,24(sp)
    800023e2:	e822                	sd	s0,16(sp)
    800023e4:	e426                	sd	s1,8(sp)
    800023e6:	e04a                	sd	s2,0(sp)
    800023e8:	1000                	addi	s0,sp,32
    800023ea:	84aa                	mv	s1,a0
  if(!holdingsleep(&b->lock))
    800023ec:	01050913          	addi	s2,a0,16
    800023f0:	854a                	mv	a0,s2
    800023f2:	19a010ef          	jal	ra,8000358c <holdingsleep>
    800023f6:	c13d                	beqz	a0,8000245c <brelse+0x7e>
    panic("brelse");

  releasesleep(&b->lock);
    800023f8:	854a                	mv	a0,s2
    800023fa:	15a010ef          	jal	ra,80003554 <releasesleep>

  acquire(&bcache.lock);
    800023fe:	0000b517          	auipc	a0,0xb
    80002402:	70a50513          	addi	a0,a0,1802 # 8000db08 <bcache>
    80002406:	57c030ef          	jal	ra,80005982 <acquire>
  b->refcnt--;
    8000240a:	40bc                	lw	a5,64(s1)
    8000240c:	37fd                	addiw	a5,a5,-1
    8000240e:	0007871b          	sext.w	a4,a5
    80002412:	c0bc                	sw	a5,64(s1)
  if (b->refcnt == 0) {
    80002414:	eb05                	bnez	a4,80002444 <brelse+0x66>
    // no one is waiting for it.
    b->next->prev = b->prev;
    80002416:	68bc                	ld	a5,80(s1)
    80002418:	64b8                	ld	a4,72(s1)
    8000241a:	e7b8                	sd	a4,72(a5)
    b->prev->next = b->next;
    8000241c:	64bc                	ld	a5,72(s1)
    8000241e:	68b8                	ld	a4,80(s1)
    80002420:	ebb8                	sd	a4,80(a5)
    b->next = bcache.head.next;
    80002422:	00013797          	auipc	a5,0x13
    80002426:	6e678793          	addi	a5,a5,1766 # 80015b08 <bcache+0x8000>
    8000242a:	2b87b703          	ld	a4,696(a5)
    8000242e:	e8b8                	sd	a4,80(s1)
    b->prev = &bcache.head;
    80002430:	00014717          	auipc	a4,0x14
    80002434:	94070713          	addi	a4,a4,-1728 # 80015d70 <bcache+0x8268>
    80002438:	e4b8                	sd	a4,72(s1)
    bcache.head.next->prev = b;
    8000243a:	2b87b703          	ld	a4,696(a5)
    8000243e:	e724                	sd	s1,72(a4)
    bcache.head.next = b;
    80002440:	2a97bc23          	sd	s1,696(a5)
  }

  release(&bcache.lock);
    80002444:	0000b517          	auipc	a0,0xb
    80002448:	6c450513          	addi	a0,a0,1732 # 8000db08 <bcache>
    8000244c:	5ce030ef          	jal	ra,80005a1a <release>
}
    80002450:	60e2                	ld	ra,24(sp)
    80002452:	6442                	ld	s0,16(sp)
    80002454:	64a2                	ld	s1,8(sp)
    80002456:	6902                	ld	s2,0(sp)
    80002458:	6105                	addi	sp,sp,32
    8000245a:	8082                	ret
    panic("brelse");
    8000245c:	00005517          	auipc	a0,0x5
    80002460:	21c50513          	addi	a0,a0,540 # 80007678 <syscalls+0x148>
    80002464:	20e030ef          	jal	ra,80005672 <panic>

0000000080002468 <bpin>:

void
bpin(struct buf *b) {
    80002468:	1101                	addi	sp,sp,-32
    8000246a:	ec06                	sd	ra,24(sp)
    8000246c:	e822                	sd	s0,16(sp)
    8000246e:	e426                	sd	s1,8(sp)
    80002470:	1000                	addi	s0,sp,32
    80002472:	84aa                	mv	s1,a0
  acquire(&bcache.lock);
    80002474:	0000b517          	auipc	a0,0xb
    80002478:	69450513          	addi	a0,a0,1684 # 8000db08 <bcache>
    8000247c:	506030ef          	jal	ra,80005982 <acquire>
  b->refcnt++;
    80002480:	40bc                	lw	a5,64(s1)
    80002482:	2785                	addiw	a5,a5,1
    80002484:	c0bc                	sw	a5,64(s1)
  release(&bcache.lock);
    80002486:	0000b517          	auipc	a0,0xb
    8000248a:	68250513          	addi	a0,a0,1666 # 8000db08 <bcache>
    8000248e:	58c030ef          	jal	ra,80005a1a <release>
}
    80002492:	60e2                	ld	ra,24(sp)
    80002494:	6442                	ld	s0,16(sp)
    80002496:	64a2                	ld	s1,8(sp)
    80002498:	6105                	addi	sp,sp,32
    8000249a:	8082                	ret

000000008000249c <bunpin>:

void
bunpin(struct buf *b) {
    8000249c:	1101                	addi	sp,sp,-32
    8000249e:	ec06                	sd	ra,24(sp)
    800024a0:	e822                	sd	s0,16(sp)
    800024a2:	e426                	sd	s1,8(sp)
    800024a4:	1000                	addi	s0,sp,32
    800024a6:	84aa                	mv	s1,a0
  acquire(&bcache.lock);
    800024a8:	0000b517          	auipc	a0,0xb
    800024ac:	66050513          	addi	a0,a0,1632 # 8000db08 <bcache>
    800024b0:	4d2030ef          	jal	ra,80005982 <acquire>
  b->refcnt--;
    800024b4:	40bc                	lw	a5,64(s1)
    800024b6:	37fd                	addiw	a5,a5,-1
    800024b8:	c0bc                	sw	a5,64(s1)
  release(&bcache.lock);
    800024ba:	0000b517          	auipc	a0,0xb
    800024be:	64e50513          	addi	a0,a0,1614 # 8000db08 <bcache>
    800024c2:	558030ef          	jal	ra,80005a1a <release>
}
    800024c6:	60e2                	ld	ra,24(sp)
    800024c8:	6442                	ld	s0,16(sp)
    800024ca:	64a2                	ld	s1,8(sp)
    800024cc:	6105                	addi	sp,sp,32
    800024ce:	8082                	ret

00000000800024d0 <bfree>:
}

// Free a disk block.
static void
bfree(int dev, uint b)
{
    800024d0:	1101                	addi	sp,sp,-32
    800024d2:	ec06                	sd	ra,24(sp)
    800024d4:	e822                	sd	s0,16(sp)
    800024d6:	e426                	sd	s1,8(sp)
    800024d8:	e04a                	sd	s2,0(sp)
    800024da:	1000                	addi	s0,sp,32
    800024dc:	84ae                	mv	s1,a1
  struct buf *bp;
  int bi, m;

  bp = bread(dev, BBLOCK(b, sb));
    800024de:	00d5d59b          	srliw	a1,a1,0xd
    800024e2:	00014797          	auipc	a5,0x14
    800024e6:	d027a783          	lw	a5,-766(a5) # 800161e4 <sb+0x1c>
    800024ea:	9dbd                	addw	a1,a1,a5
    800024ec:	debff0ef          	jal	ra,800022d6 <bread>
  bi = b % BPB;
  m = 1 << (bi % 8);
    800024f0:	0074f713          	andi	a4,s1,7
    800024f4:	4785                	li	a5,1
    800024f6:	00e797bb          	sllw	a5,a5,a4
  if((bp->data[bi/8] & m) == 0)
    800024fa:	14ce                	slli	s1,s1,0x33
    800024fc:	90d9                	srli	s1,s1,0x36
    800024fe:	00950733          	add	a4,a0,s1
    80002502:	05874703          	lbu	a4,88(a4)
    80002506:	00e7f6b3          	and	a3,a5,a4
    8000250a:	c29d                	beqz	a3,80002530 <bfree+0x60>
    8000250c:	892a                	mv	s2,a0
    panic("freeing free block");
  bp->data[bi/8] &= ~m;
    8000250e:	94aa                	add	s1,s1,a0
    80002510:	fff7c793          	not	a5,a5
    80002514:	8f7d                	and	a4,a4,a5
    80002516:	04e48c23          	sb	a4,88(s1)
  log_write(bp);
    8000251a:	6ef000ef          	jal	ra,80003408 <log_write>
  brelse(bp);
    8000251e:	854a                	mv	a0,s2
    80002520:	ebfff0ef          	jal	ra,800023de <brelse>
}
    80002524:	60e2                	ld	ra,24(sp)
    80002526:	6442                	ld	s0,16(sp)
    80002528:	64a2                	ld	s1,8(sp)
    8000252a:	6902                	ld	s2,0(sp)
    8000252c:	6105                	addi	sp,sp,32
    8000252e:	8082                	ret
    panic("freeing free block");
    80002530:	00005517          	auipc	a0,0x5
    80002534:	15050513          	addi	a0,a0,336 # 80007680 <syscalls+0x150>
    80002538:	13a030ef          	jal	ra,80005672 <panic>

000000008000253c <balloc>:
{
    8000253c:	711d                	addi	sp,sp,-96
    8000253e:	ec86                	sd	ra,88(sp)
    80002540:	e8a2                	sd	s0,80(sp)
    80002542:	e4a6                	sd	s1,72(sp)
    80002544:	e0ca                	sd	s2,64(sp)
    80002546:	fc4e                	sd	s3,56(sp)
    80002548:	f852                	sd	s4,48(sp)
    8000254a:	f456                	sd	s5,40(sp)
    8000254c:	f05a                	sd	s6,32(sp)
    8000254e:	ec5e                	sd	s7,24(sp)
    80002550:	e862                	sd	s8,16(sp)
    80002552:	e466                	sd	s9,8(sp)
    80002554:	1080                	addi	s0,sp,96
  for(b = 0; b < sb.size; b += BPB){
    80002556:	00014797          	auipc	a5,0x14
    8000255a:	c767a783          	lw	a5,-906(a5) # 800161cc <sb+0x4>
    8000255e:	cff1                	beqz	a5,8000263a <balloc+0xfe>
    80002560:	8baa                	mv	s7,a0
    80002562:	4a81                	li	s5,0
    bp = bread(dev, BBLOCK(b, sb));
    80002564:	00014b17          	auipc	s6,0x14
    80002568:	c64b0b13          	addi	s6,s6,-924 # 800161c8 <sb>
    for(bi = 0; bi < BPB && b + bi < sb.size; bi++){
    8000256c:	4c01                	li	s8,0
      m = 1 << (bi % 8);
    8000256e:	4985                	li	s3,1
    for(bi = 0; bi < BPB && b + bi < sb.size; bi++){
    80002570:	6a09                	lui	s4,0x2
  for(b = 0; b < sb.size; b += BPB){
    80002572:	6c89                	lui	s9,0x2
    80002574:	a0b5                	j	800025e0 <balloc+0xa4>
        bp->data[bi/8] |= m;  // Mark block in use.
    80002576:	97ca                	add	a5,a5,s2
    80002578:	8e55                	or	a2,a2,a3
    8000257a:	04c78c23          	sb	a2,88(a5)
        log_write(bp);
    8000257e:	854a                	mv	a0,s2
    80002580:	689000ef          	jal	ra,80003408 <log_write>
        brelse(bp);
    80002584:	854a                	mv	a0,s2
    80002586:	e59ff0ef          	jal	ra,800023de <brelse>
  bp = bread(dev, bno);
    8000258a:	85a6                	mv	a1,s1
    8000258c:	855e                	mv	a0,s7
    8000258e:	d49ff0ef          	jal	ra,800022d6 <bread>
    80002592:	892a                	mv	s2,a0
  memset(bp->data, 0, BSIZE);
    80002594:	40000613          	li	a2,1024
    80002598:	4581                	li	a1,0
    8000259a:	05850513          	addi	a0,a0,88
    8000259e:	d15fd0ef          	jal	ra,800002b2 <memset>
  log_write(bp);
    800025a2:	854a                	mv	a0,s2
    800025a4:	665000ef          	jal	ra,80003408 <log_write>
  brelse(bp);
    800025a8:	854a                	mv	a0,s2
    800025aa:	e35ff0ef          	jal	ra,800023de <brelse>
}
    800025ae:	8526                	mv	a0,s1
    800025b0:	60e6                	ld	ra,88(sp)
    800025b2:	6446                	ld	s0,80(sp)
    800025b4:	64a6                	ld	s1,72(sp)
    800025b6:	6906                	ld	s2,64(sp)
    800025b8:	79e2                	ld	s3,56(sp)
    800025ba:	7a42                	ld	s4,48(sp)
    800025bc:	7aa2                	ld	s5,40(sp)
    800025be:	7b02                	ld	s6,32(sp)
    800025c0:	6be2                	ld	s7,24(sp)
    800025c2:	6c42                	ld	s8,16(sp)
    800025c4:	6ca2                	ld	s9,8(sp)
    800025c6:	6125                	addi	sp,sp,96
    800025c8:	8082                	ret
    brelse(bp);
    800025ca:	854a                	mv	a0,s2
    800025cc:	e13ff0ef          	jal	ra,800023de <brelse>
  for(b = 0; b < sb.size; b += BPB){
    800025d0:	015c87bb          	addw	a5,s9,s5
    800025d4:	00078a9b          	sext.w	s5,a5
    800025d8:	004b2703          	lw	a4,4(s6)
    800025dc:	04eaff63          	bgeu	s5,a4,8000263a <balloc+0xfe>
    bp = bread(dev, BBLOCK(b, sb));
    800025e0:	41fad79b          	sraiw	a5,s5,0x1f
    800025e4:	0137d79b          	srliw	a5,a5,0x13
    800025e8:	015787bb          	addw	a5,a5,s5
    800025ec:	40d7d79b          	sraiw	a5,a5,0xd
    800025f0:	01cb2583          	lw	a1,28(s6)
    800025f4:	9dbd                	addw	a1,a1,a5
    800025f6:	855e                	mv	a0,s7
    800025f8:	cdfff0ef          	jal	ra,800022d6 <bread>
    800025fc:	892a                	mv	s2,a0
    for(bi = 0; bi < BPB && b + bi < sb.size; bi++){
    800025fe:	004b2503          	lw	a0,4(s6)
    80002602:	000a849b          	sext.w	s1,s5
    80002606:	8762                	mv	a4,s8
    80002608:	fca4f1e3          	bgeu	s1,a0,800025ca <balloc+0x8e>
      m = 1 << (bi % 8);
    8000260c:	00777693          	andi	a3,a4,7
    80002610:	00d996bb          	sllw	a3,s3,a3
      if((bp->data[bi/8] & m) == 0){  // Is block free?
    80002614:	41f7579b          	sraiw	a5,a4,0x1f
    80002618:	01d7d79b          	srliw	a5,a5,0x1d
    8000261c:	9fb9                	addw	a5,a5,a4
    8000261e:	4037d79b          	sraiw	a5,a5,0x3
    80002622:	00f90633          	add	a2,s2,a5
    80002626:	05864603          	lbu	a2,88(a2)
    8000262a:	00c6f5b3          	and	a1,a3,a2
    8000262e:	d5a1                	beqz	a1,80002576 <balloc+0x3a>
    for(bi = 0; bi < BPB && b + bi < sb.size; bi++){
    80002630:	2705                	addiw	a4,a4,1
    80002632:	2485                	addiw	s1,s1,1
    80002634:	fd471ae3          	bne	a4,s4,80002608 <balloc+0xcc>
    80002638:	bf49                	j	800025ca <balloc+0x8e>
  printf("balloc: out of blocks\n");
    8000263a:	00005517          	auipc	a0,0x5
    8000263e:	05e50513          	addi	a0,a0,94 # 80007698 <syscalls+0x168>
    80002642:	57d020ef          	jal	ra,800053be <printf>
  return 0;
    80002646:	4481                	li	s1,0
    80002648:	b79d                	j	800025ae <balloc+0x72>

000000008000264a <bmap>:
// Return the disk block address of the nth block in inode ip.
// If there is no such block, bmap allocates one.
// returns 0 if out of disk space.
static uint
bmap(struct inode *ip, uint bn)
{
    8000264a:	7179                	addi	sp,sp,-48
    8000264c:	f406                	sd	ra,40(sp)
    8000264e:	f022                	sd	s0,32(sp)
    80002650:	ec26                	sd	s1,24(sp)
    80002652:	e84a                	sd	s2,16(sp)
    80002654:	e44e                	sd	s3,8(sp)
    80002656:	e052                	sd	s4,0(sp)
    80002658:	1800                	addi	s0,sp,48
    8000265a:	89aa                	mv	s3,a0
  uint addr, *a;
  struct buf *bp;

  if(bn < NDIRECT){
    8000265c:	47ad                	li	a5,11
    8000265e:	02b7e663          	bltu	a5,a1,8000268a <bmap+0x40>
    if((addr = ip->addrs[bn]) == 0){
    80002662:	02059793          	slli	a5,a1,0x20
    80002666:	01e7d593          	srli	a1,a5,0x1e
    8000266a:	00b504b3          	add	s1,a0,a1
    8000266e:	0504a903          	lw	s2,80(s1)
    80002672:	06091663          	bnez	s2,800026de <bmap+0x94>
      addr = balloc(ip->dev);
    80002676:	4108                	lw	a0,0(a0)
    80002678:	ec5ff0ef          	jal	ra,8000253c <balloc>
    8000267c:	0005091b          	sext.w	s2,a0
      if(addr == 0)
    80002680:	04090f63          	beqz	s2,800026de <bmap+0x94>
        return 0;
      ip->addrs[bn] = addr;
    80002684:	0524a823          	sw	s2,80(s1)
    80002688:	a899                	j	800026de <bmap+0x94>
    }
    return addr;
  }
  bn -= NDIRECT;
    8000268a:	ff45849b          	addiw	s1,a1,-12
    8000268e:	0004871b          	sext.w	a4,s1

  if(bn < NINDIRECT){
    80002692:	0ff00793          	li	a5,255
    80002696:	06e7eb63          	bltu	a5,a4,8000270c <bmap+0xc2>
    // Load indirect block, allocating if necessary.
    if((addr = ip->addrs[NDIRECT]) == 0){
    8000269a:	08052903          	lw	s2,128(a0)
    8000269e:	00091b63          	bnez	s2,800026b4 <bmap+0x6a>
      addr = balloc(ip->dev);
    800026a2:	4108                	lw	a0,0(a0)
    800026a4:	e99ff0ef          	jal	ra,8000253c <balloc>
    800026a8:	0005091b          	sext.w	s2,a0
      if(addr == 0)
    800026ac:	02090963          	beqz	s2,800026de <bmap+0x94>
        return 0;
      ip->addrs[NDIRECT] = addr;
    800026b0:	0929a023          	sw	s2,128(s3)
    }
    bp = bread(ip->dev, addr);
    800026b4:	85ca                	mv	a1,s2
    800026b6:	0009a503          	lw	a0,0(s3)
    800026ba:	c1dff0ef          	jal	ra,800022d6 <bread>
    800026be:	8a2a                	mv	s4,a0
    a = (uint*)bp->data;
    800026c0:	05850793          	addi	a5,a0,88
    if((addr = a[bn]) == 0){
    800026c4:	02049713          	slli	a4,s1,0x20
    800026c8:	01e75593          	srli	a1,a4,0x1e
    800026cc:	00b784b3          	add	s1,a5,a1
    800026d0:	0004a903          	lw	s2,0(s1)
    800026d4:	00090e63          	beqz	s2,800026f0 <bmap+0xa6>
      if(addr){
        a[bn] = addr;
        log_write(bp);
      }
    }
    brelse(bp);
    800026d8:	8552                	mv	a0,s4
    800026da:	d05ff0ef          	jal	ra,800023de <brelse>
    return addr;
  }

  panic("bmap: out of range");
}
    800026de:	854a                	mv	a0,s2
    800026e0:	70a2                	ld	ra,40(sp)
    800026e2:	7402                	ld	s0,32(sp)
    800026e4:	64e2                	ld	s1,24(sp)
    800026e6:	6942                	ld	s2,16(sp)
    800026e8:	69a2                	ld	s3,8(sp)
    800026ea:	6a02                	ld	s4,0(sp)
    800026ec:	6145                	addi	sp,sp,48
    800026ee:	8082                	ret
      addr = balloc(ip->dev);
    800026f0:	0009a503          	lw	a0,0(s3)
    800026f4:	e49ff0ef          	jal	ra,8000253c <balloc>
    800026f8:	0005091b          	sext.w	s2,a0
      if(addr){
    800026fc:	fc090ee3          	beqz	s2,800026d8 <bmap+0x8e>
        a[bn] = addr;
    80002700:	0124a023          	sw	s2,0(s1)
        log_write(bp);
    80002704:	8552                	mv	a0,s4
    80002706:	503000ef          	jal	ra,80003408 <log_write>
    8000270a:	b7f9                	j	800026d8 <bmap+0x8e>
  panic("bmap: out of range");
    8000270c:	00005517          	auipc	a0,0x5
    80002710:	fa450513          	addi	a0,a0,-92 # 800076b0 <syscalls+0x180>
    80002714:	75f020ef          	jal	ra,80005672 <panic>

0000000080002718 <iget>:
{
    80002718:	7179                	addi	sp,sp,-48
    8000271a:	f406                	sd	ra,40(sp)
    8000271c:	f022                	sd	s0,32(sp)
    8000271e:	ec26                	sd	s1,24(sp)
    80002720:	e84a                	sd	s2,16(sp)
    80002722:	e44e                	sd	s3,8(sp)
    80002724:	e052                	sd	s4,0(sp)
    80002726:	1800                	addi	s0,sp,48
    80002728:	89aa                	mv	s3,a0
    8000272a:	8a2e                	mv	s4,a1
  acquire(&itable.lock);
    8000272c:	00014517          	auipc	a0,0x14
    80002730:	abc50513          	addi	a0,a0,-1348 # 800161e8 <itable>
    80002734:	24e030ef          	jal	ra,80005982 <acquire>
  empty = 0;
    80002738:	4901                	li	s2,0
  for(ip = &itable.inode[0]; ip < &itable.inode[NINODE]; ip++){
    8000273a:	00014497          	auipc	s1,0x14
    8000273e:	ac648493          	addi	s1,s1,-1338 # 80016200 <itable+0x18>
    80002742:	00015697          	auipc	a3,0x15
    80002746:	54e68693          	addi	a3,a3,1358 # 80017c90 <log>
    8000274a:	a039                	j	80002758 <iget+0x40>
    if(empty == 0 && ip->ref == 0)    // Remember empty slot.
    8000274c:	02090963          	beqz	s2,8000277e <iget+0x66>
  for(ip = &itable.inode[0]; ip < &itable.inode[NINODE]; ip++){
    80002750:	08848493          	addi	s1,s1,136
    80002754:	02d48863          	beq	s1,a3,80002784 <iget+0x6c>
    if(ip->ref > 0 && ip->dev == dev && ip->inum == inum){
    80002758:	449c                	lw	a5,8(s1)
    8000275a:	fef059e3          	blez	a5,8000274c <iget+0x34>
    8000275e:	4098                	lw	a4,0(s1)
    80002760:	ff3716e3          	bne	a4,s3,8000274c <iget+0x34>
    80002764:	40d8                	lw	a4,4(s1)
    80002766:	ff4713e3          	bne	a4,s4,8000274c <iget+0x34>
      ip->ref++;
    8000276a:	2785                	addiw	a5,a5,1
    8000276c:	c49c                	sw	a5,8(s1)
      release(&itable.lock);
    8000276e:	00014517          	auipc	a0,0x14
    80002772:	a7a50513          	addi	a0,a0,-1414 # 800161e8 <itable>
    80002776:	2a4030ef          	jal	ra,80005a1a <release>
      return ip;
    8000277a:	8926                	mv	s2,s1
    8000277c:	a02d                	j	800027a6 <iget+0x8e>
    if(empty == 0 && ip->ref == 0)    // Remember empty slot.
    8000277e:	fbe9                	bnez	a5,80002750 <iget+0x38>
    80002780:	8926                	mv	s2,s1
    80002782:	b7f9                	j	80002750 <iget+0x38>
  if(empty == 0)
    80002784:	02090a63          	beqz	s2,800027b8 <iget+0xa0>
  ip->dev = dev;
    80002788:	01392023          	sw	s3,0(s2)
  ip->inum = inum;
    8000278c:	01492223          	sw	s4,4(s2)
  ip->ref = 1;
    80002790:	4785                	li	a5,1
    80002792:	00f92423          	sw	a5,8(s2)
  ip->valid = 0;
    80002796:	04092023          	sw	zero,64(s2)
  release(&itable.lock);
    8000279a:	00014517          	auipc	a0,0x14
    8000279e:	a4e50513          	addi	a0,a0,-1458 # 800161e8 <itable>
    800027a2:	278030ef          	jal	ra,80005a1a <release>
}
    800027a6:	854a                	mv	a0,s2
    800027a8:	70a2                	ld	ra,40(sp)
    800027aa:	7402                	ld	s0,32(sp)
    800027ac:	64e2                	ld	s1,24(sp)
    800027ae:	6942                	ld	s2,16(sp)
    800027b0:	69a2                	ld	s3,8(sp)
    800027b2:	6a02                	ld	s4,0(sp)
    800027b4:	6145                	addi	sp,sp,48
    800027b6:	8082                	ret
    panic("iget: no inodes");
    800027b8:	00005517          	auipc	a0,0x5
    800027bc:	f1050513          	addi	a0,a0,-240 # 800076c8 <syscalls+0x198>
    800027c0:	6b3020ef          	jal	ra,80005672 <panic>

00000000800027c4 <fsinit>:
fsinit(int dev) {
    800027c4:	7179                	addi	sp,sp,-48
    800027c6:	f406                	sd	ra,40(sp)
    800027c8:	f022                	sd	s0,32(sp)
    800027ca:	ec26                	sd	s1,24(sp)
    800027cc:	e84a                	sd	s2,16(sp)
    800027ce:	e44e                	sd	s3,8(sp)
    800027d0:	1800                	addi	s0,sp,48
    800027d2:	892a                	mv	s2,a0
  bp = bread(dev, 1);
    800027d4:	4585                	li	a1,1
    800027d6:	b01ff0ef          	jal	ra,800022d6 <bread>
    800027da:	84aa                	mv	s1,a0
  memmove(sb, bp->data, sizeof(*sb));
    800027dc:	00014997          	auipc	s3,0x14
    800027e0:	9ec98993          	addi	s3,s3,-1556 # 800161c8 <sb>
    800027e4:	02000613          	li	a2,32
    800027e8:	05850593          	addi	a1,a0,88
    800027ec:	854e                	mv	a0,s3
    800027ee:	b21fd0ef          	jal	ra,8000030e <memmove>
  brelse(bp);
    800027f2:	8526                	mv	a0,s1
    800027f4:	bebff0ef          	jal	ra,800023de <brelse>
  if(sb.magic != FSMAGIC)
    800027f8:	0009a703          	lw	a4,0(s3)
    800027fc:	102037b7          	lui	a5,0x10203
    80002800:	04078793          	addi	a5,a5,64 # 10203040 <_entry-0x6fdfcfc0>
    80002804:	02f71063          	bne	a4,a5,80002824 <fsinit+0x60>
  initlog(dev, &sb);
    80002808:	00014597          	auipc	a1,0x14
    8000280c:	9c058593          	addi	a1,a1,-1600 # 800161c8 <sb>
    80002810:	854a                	mv	a0,s2
    80002812:	1e3000ef          	jal	ra,800031f4 <initlog>
}
    80002816:	70a2                	ld	ra,40(sp)
    80002818:	7402                	ld	s0,32(sp)
    8000281a:	64e2                	ld	s1,24(sp)
    8000281c:	6942                	ld	s2,16(sp)
    8000281e:	69a2                	ld	s3,8(sp)
    80002820:	6145                	addi	sp,sp,48
    80002822:	8082                	ret
    panic("invalid file system");
    80002824:	00005517          	auipc	a0,0x5
    80002828:	eb450513          	addi	a0,a0,-332 # 800076d8 <syscalls+0x1a8>
    8000282c:	647020ef          	jal	ra,80005672 <panic>

0000000080002830 <iinit>:
{
    80002830:	7179                	addi	sp,sp,-48
    80002832:	f406                	sd	ra,40(sp)
    80002834:	f022                	sd	s0,32(sp)
    80002836:	ec26                	sd	s1,24(sp)
    80002838:	e84a                	sd	s2,16(sp)
    8000283a:	e44e                	sd	s3,8(sp)
    8000283c:	1800                	addi	s0,sp,48
  initlock(&itable.lock, "itable");
    8000283e:	00005597          	auipc	a1,0x5
    80002842:	eb258593          	addi	a1,a1,-334 # 800076f0 <syscalls+0x1c0>
    80002846:	00014517          	auipc	a0,0x14
    8000284a:	9a250513          	addi	a0,a0,-1630 # 800161e8 <itable>
    8000284e:	0b4030ef          	jal	ra,80005902 <initlock>
  for(i = 0; i < NINODE; i++) {
    80002852:	00014497          	auipc	s1,0x14
    80002856:	9be48493          	addi	s1,s1,-1602 # 80016210 <itable+0x28>
    8000285a:	00015997          	auipc	s3,0x15
    8000285e:	44698993          	addi	s3,s3,1094 # 80017ca0 <log+0x10>
    initsleeplock(&itable.inode[i].lock, "inode");
    80002862:	00005917          	auipc	s2,0x5
    80002866:	e9690913          	addi	s2,s2,-362 # 800076f8 <syscalls+0x1c8>
    8000286a:	85ca                	mv	a1,s2
    8000286c:	8526                	mv	a0,s1
    8000286e:	46b000ef          	jal	ra,800034d8 <initsleeplock>
  for(i = 0; i < NINODE; i++) {
    80002872:	08848493          	addi	s1,s1,136
    80002876:	ff349ae3          	bne	s1,s3,8000286a <iinit+0x3a>
}
    8000287a:	70a2                	ld	ra,40(sp)
    8000287c:	7402                	ld	s0,32(sp)
    8000287e:	64e2                	ld	s1,24(sp)
    80002880:	6942                	ld	s2,16(sp)
    80002882:	69a2                	ld	s3,8(sp)
    80002884:	6145                	addi	sp,sp,48
    80002886:	8082                	ret

0000000080002888 <ialloc>:
{
    80002888:	715d                	addi	sp,sp,-80
    8000288a:	e486                	sd	ra,72(sp)
    8000288c:	e0a2                	sd	s0,64(sp)
    8000288e:	fc26                	sd	s1,56(sp)
    80002890:	f84a                	sd	s2,48(sp)
    80002892:	f44e                	sd	s3,40(sp)
    80002894:	f052                	sd	s4,32(sp)
    80002896:	ec56                	sd	s5,24(sp)
    80002898:	e85a                	sd	s6,16(sp)
    8000289a:	e45e                	sd	s7,8(sp)
    8000289c:	0880                	addi	s0,sp,80
  for(inum = 1; inum < sb.ninodes; inum++){
    8000289e:	00014717          	auipc	a4,0x14
    800028a2:	93672703          	lw	a4,-1738(a4) # 800161d4 <sb+0xc>
    800028a6:	4785                	li	a5,1
    800028a8:	04e7f663          	bgeu	a5,a4,800028f4 <ialloc+0x6c>
    800028ac:	8aaa                	mv	s5,a0
    800028ae:	8bae                	mv	s7,a1
    800028b0:	4485                	li	s1,1
    bp = bread(dev, IBLOCK(inum, sb));
    800028b2:	00014a17          	auipc	s4,0x14
    800028b6:	916a0a13          	addi	s4,s4,-1770 # 800161c8 <sb>
    800028ba:	00048b1b          	sext.w	s6,s1
    800028be:	0044d593          	srli	a1,s1,0x4
    800028c2:	018a2783          	lw	a5,24(s4)
    800028c6:	9dbd                	addw	a1,a1,a5
    800028c8:	8556                	mv	a0,s5
    800028ca:	a0dff0ef          	jal	ra,800022d6 <bread>
    800028ce:	892a                	mv	s2,a0
    dip = (struct dinode*)bp->data + inum%IPB;
    800028d0:	05850993          	addi	s3,a0,88
    800028d4:	00f4f793          	andi	a5,s1,15
    800028d8:	079a                	slli	a5,a5,0x6
    800028da:	99be                	add	s3,s3,a5
    if(dip->type == 0){  // a free inode
    800028dc:	00099783          	lh	a5,0(s3)
    800028e0:	cf85                	beqz	a5,80002918 <ialloc+0x90>
    brelse(bp);
    800028e2:	afdff0ef          	jal	ra,800023de <brelse>
  for(inum = 1; inum < sb.ninodes; inum++){
    800028e6:	0485                	addi	s1,s1,1
    800028e8:	00ca2703          	lw	a4,12(s4)
    800028ec:	0004879b          	sext.w	a5,s1
    800028f0:	fce7e5e3          	bltu	a5,a4,800028ba <ialloc+0x32>
  printf("ialloc: no inodes\n");
    800028f4:	00005517          	auipc	a0,0x5
    800028f8:	e0c50513          	addi	a0,a0,-500 # 80007700 <syscalls+0x1d0>
    800028fc:	2c3020ef          	jal	ra,800053be <printf>
  return 0;
    80002900:	4501                	li	a0,0
}
    80002902:	60a6                	ld	ra,72(sp)
    80002904:	6406                	ld	s0,64(sp)
    80002906:	74e2                	ld	s1,56(sp)
    80002908:	7942                	ld	s2,48(sp)
    8000290a:	79a2                	ld	s3,40(sp)
    8000290c:	7a02                	ld	s4,32(sp)
    8000290e:	6ae2                	ld	s5,24(sp)
    80002910:	6b42                	ld	s6,16(sp)
    80002912:	6ba2                	ld	s7,8(sp)
    80002914:	6161                	addi	sp,sp,80
    80002916:	8082                	ret
      memset(dip, 0, sizeof(*dip));
    80002918:	04000613          	li	a2,64
    8000291c:	4581                	li	a1,0
    8000291e:	854e                	mv	a0,s3
    80002920:	993fd0ef          	jal	ra,800002b2 <memset>
      dip->type = type;
    80002924:	01799023          	sh	s7,0(s3)
      log_write(bp);   // mark it allocated on the disk
    80002928:	854a                	mv	a0,s2
    8000292a:	2df000ef          	jal	ra,80003408 <log_write>
      brelse(bp);
    8000292e:	854a                	mv	a0,s2
    80002930:	aafff0ef          	jal	ra,800023de <brelse>
      return iget(dev, inum);
    80002934:	85da                	mv	a1,s6
    80002936:	8556                	mv	a0,s5
    80002938:	de1ff0ef          	jal	ra,80002718 <iget>
    8000293c:	b7d9                	j	80002902 <ialloc+0x7a>

000000008000293e <iupdate>:
{
    8000293e:	1101                	addi	sp,sp,-32
    80002940:	ec06                	sd	ra,24(sp)
    80002942:	e822                	sd	s0,16(sp)
    80002944:	e426                	sd	s1,8(sp)
    80002946:	e04a                	sd	s2,0(sp)
    80002948:	1000                	addi	s0,sp,32
    8000294a:	84aa                	mv	s1,a0
  bp = bread(ip->dev, IBLOCK(ip->inum, sb));
    8000294c:	415c                	lw	a5,4(a0)
    8000294e:	0047d79b          	srliw	a5,a5,0x4
    80002952:	00014597          	auipc	a1,0x14
    80002956:	88e5a583          	lw	a1,-1906(a1) # 800161e0 <sb+0x18>
    8000295a:	9dbd                	addw	a1,a1,a5
    8000295c:	4108                	lw	a0,0(a0)
    8000295e:	979ff0ef          	jal	ra,800022d6 <bread>
    80002962:	892a                	mv	s2,a0
  dip = (struct dinode*)bp->data + ip->inum%IPB;
    80002964:	05850793          	addi	a5,a0,88
    80002968:	40d8                	lw	a4,4(s1)
    8000296a:	8b3d                	andi	a4,a4,15
    8000296c:	071a                	slli	a4,a4,0x6
    8000296e:	97ba                	add	a5,a5,a4
  dip->type = ip->type;
    80002970:	04449703          	lh	a4,68(s1)
    80002974:	00e79023          	sh	a4,0(a5)
  dip->major = ip->major;
    80002978:	04649703          	lh	a4,70(s1)
    8000297c:	00e79123          	sh	a4,2(a5)
  dip->minor = ip->minor;
    80002980:	04849703          	lh	a4,72(s1)
    80002984:	00e79223          	sh	a4,4(a5)
  dip->nlink = ip->nlink;
    80002988:	04a49703          	lh	a4,74(s1)
    8000298c:	00e79323          	sh	a4,6(a5)
  dip->size = ip->size;
    80002990:	44f8                	lw	a4,76(s1)
    80002992:	c798                	sw	a4,8(a5)
  memmove(dip->addrs, ip->addrs, sizeof(ip->addrs));
    80002994:	03400613          	li	a2,52
    80002998:	05048593          	addi	a1,s1,80
    8000299c:	00c78513          	addi	a0,a5,12
    800029a0:	96ffd0ef          	jal	ra,8000030e <memmove>
  log_write(bp);
